
kernel/kernel：     文件格式 elf64-littleriscv


Disassembly of section .text:

0000000080000000 <_entry>:
    80000000:	0000a117          	auipc	sp,0xa
    80000004:	8d013103          	ld	sp,-1840(sp) # 800098d0 <_GLOBAL_OFFSET_TABLE_+0x8>
    80000008:	6505                	lui	a0,0x1
    8000000a:	f14025f3          	csrr	a1,mhartid
    8000000e:	0585                	addi	a1,a1,1
    80000010:	02b50533          	mul	a0,a0,a1
    80000014:	912a                	add	sp,sp,a0
    80000016:	0ad060ef          	jal	ra,800068c2 <start>

000000008000001a <spin>:
    8000001a:	a001                	j	8000001a <spin>

000000008000001c <kfree>:
// which normally should have been returned by a
// call to kalloc().  (The exception is when
// initializing the allocator; see kinit above.)
void
kfree(void *pa)
{
    8000001c:	1101                	addi	sp,sp,-32
    8000001e:	ec06                	sd	ra,24(sp)
    80000020:	e822                	sd	s0,16(sp)
    80000022:	e426                	sd	s1,8(sp)
    80000024:	e04a                	sd	s2,0(sp)
    80000026:	1000                	addi	s0,sp,32
  struct run *r;

  if(((uint64)pa % PGSIZE) != 0 || (char*)pa < end || (uint64)pa >= PHYSTOP)
    80000028:	6785                	lui	a5,0x1
    8000002a:	17fd                	addi	a5,a5,-1
    8000002c:	8fe9                	and	a5,a5,a0
    8000002e:	ebb9                	bnez	a5,80000084 <kfree+0x68>
    80000030:	84aa                	mv	s1,a0
    80000032:	00027797          	auipc	a5,0x27
    80000036:	54e78793          	addi	a5,a5,1358 # 80027580 <end>
    8000003a:	04f56563          	bltu	a0,a5,80000084 <kfree+0x68>
    8000003e:	47c5                	li	a5,17
    80000040:	07ee                	slli	a5,a5,0x1b
    80000042:	04f57163          	bleu	a5,a0,80000084 <kfree+0x68>
    panic("kfree");

  // Fill with junk to catch dangling refs.
  memset(pa, 1, PGSIZE);
    80000046:	6605                	lui	a2,0x1
    80000048:	4585                	li	a1,1
    8000004a:	00000097          	auipc	ra,0x0
    8000004e:	132080e7          	jalr	306(ra) # 8000017c <memset>

  r = (struct run*)pa;

  acquire(&kmem.lock);
    80000052:	0000a917          	auipc	s2,0xa
    80000056:	ffe90913          	addi	s2,s2,-2 # 8000a050 <kmem>
    8000005a:	854a                	mv	a0,s2
    8000005c:	00007097          	auipc	ra,0x7
    80000060:	29e080e7          	jalr	670(ra) # 800072fa <acquire>
  r->next = kmem.freelist;
    80000064:	01893783          	ld	a5,24(s2)
    80000068:	e09c                	sd	a5,0(s1)
  kmem.freelist = r;
    8000006a:	00993c23          	sd	s1,24(s2)
  release(&kmem.lock);
    8000006e:	854a                	mv	a0,s2
    80000070:	00007097          	auipc	ra,0x7
    80000074:	33e080e7          	jalr	830(ra) # 800073ae <release>
}
    80000078:	60e2                	ld	ra,24(sp)
    8000007a:	6442                	ld	s0,16(sp)
    8000007c:	64a2                	ld	s1,8(sp)
    8000007e:	6902                	ld	s2,0(sp)
    80000080:	6105                	addi	sp,sp,32
    80000082:	8082                	ret
    panic("kfree");
    80000084:	00009517          	auipc	a0,0x9
    80000088:	f8c50513          	addi	a0,a0,-116 # 80009010 <etext+0x10>
    8000008c:	00007097          	auipc	ra,0x7
    80000090:	d02080e7          	jalr	-766(ra) # 80006d8e <panic>

0000000080000094 <freerange>:
{
    80000094:	7179                	addi	sp,sp,-48
    80000096:	f406                	sd	ra,40(sp)
    80000098:	f022                	sd	s0,32(sp)
    8000009a:	ec26                	sd	s1,24(sp)
    8000009c:	e84a                	sd	s2,16(sp)
    8000009e:	e44e                	sd	s3,8(sp)
    800000a0:	e052                	sd	s4,0(sp)
    800000a2:	1800                	addi	s0,sp,48
  p = (char*)PGROUNDUP((uint64)pa_start);
    800000a4:	6705                	lui	a4,0x1
    800000a6:	fff70793          	addi	a5,a4,-1 # fff <_entry-0x7ffff001>
    800000aa:	00f504b3          	add	s1,a0,a5
    800000ae:	77fd                	lui	a5,0xfffff
    800000b0:	8cfd                	and	s1,s1,a5
  for(; p + PGSIZE <= (char*)pa_end; p += PGSIZE)
    800000b2:	94ba                	add	s1,s1,a4
    800000b4:	0095ee63          	bltu	a1,s1,800000d0 <freerange+0x3c>
    800000b8:	892e                	mv	s2,a1
    kfree(p);
    800000ba:	7a7d                	lui	s4,0xfffff
  for(; p + PGSIZE <= (char*)pa_end; p += PGSIZE)
    800000bc:	6985                	lui	s3,0x1
    kfree(p);
    800000be:	01448533          	add	a0,s1,s4
    800000c2:	00000097          	auipc	ra,0x0
    800000c6:	f5a080e7          	jalr	-166(ra) # 8000001c <kfree>
  for(; p + PGSIZE <= (char*)pa_end; p += PGSIZE)
    800000ca:	94ce                	add	s1,s1,s3
    800000cc:	fe9979e3          	bleu	s1,s2,800000be <freerange+0x2a>
}
    800000d0:	70a2                	ld	ra,40(sp)
    800000d2:	7402                	ld	s0,32(sp)
    800000d4:	64e2                	ld	s1,24(sp)
    800000d6:	6942                	ld	s2,16(sp)
    800000d8:	69a2                	ld	s3,8(sp)
    800000da:	6a02                	ld	s4,0(sp)
    800000dc:	6145                	addi	sp,sp,48
    800000de:	8082                	ret

00000000800000e0 <kinit>:
{
    800000e0:	1141                	addi	sp,sp,-16
    800000e2:	e406                	sd	ra,8(sp)
    800000e4:	e022                	sd	s0,0(sp)
    800000e6:	0800                	addi	s0,sp,16
  initlock(&kmem.lock, "kmem");
    800000e8:	00009597          	auipc	a1,0x9
    800000ec:	f3058593          	addi	a1,a1,-208 # 80009018 <etext+0x18>
    800000f0:	0000a517          	auipc	a0,0xa
    800000f4:	f6050513          	addi	a0,a0,-160 # 8000a050 <kmem>
    800000f8:	00007097          	auipc	ra,0x7
    800000fc:	172080e7          	jalr	370(ra) # 8000726a <initlock>
  freerange(end, (void*)PHYSTOP);
    80000100:	45c5                	li	a1,17
    80000102:	05ee                	slli	a1,a1,0x1b
    80000104:	00027517          	auipc	a0,0x27
    80000108:	47c50513          	addi	a0,a0,1148 # 80027580 <end>
    8000010c:	00000097          	auipc	ra,0x0
    80000110:	f88080e7          	jalr	-120(ra) # 80000094 <freerange>
}
    80000114:	60a2                	ld	ra,8(sp)
    80000116:	6402                	ld	s0,0(sp)
    80000118:	0141                	addi	sp,sp,16
    8000011a:	8082                	ret

000000008000011c <kalloc>:
// Allocate one 4096-byte page of physical memory.
// Returns a pointer that the kernel can use.
// Returns 0 if the memory cannot be allocated.
void *
kalloc(void)
{
    8000011c:	1101                	addi	sp,sp,-32
    8000011e:	ec06                	sd	ra,24(sp)
    80000120:	e822                	sd	s0,16(sp)
    80000122:	e426                	sd	s1,8(sp)
    80000124:	1000                	addi	s0,sp,32
  struct run *r;

  acquire(&kmem.lock);
    80000126:	0000a497          	auipc	s1,0xa
    8000012a:	f2a48493          	addi	s1,s1,-214 # 8000a050 <kmem>
    8000012e:	8526                	mv	a0,s1
    80000130:	00007097          	auipc	ra,0x7
    80000134:	1ca080e7          	jalr	458(ra) # 800072fa <acquire>
  r = kmem.freelist;
    80000138:	6c84                	ld	s1,24(s1)
  if(r)
    8000013a:	c885                	beqz	s1,8000016a <kalloc+0x4e>
    kmem.freelist = r->next;
    8000013c:	609c                	ld	a5,0(s1)
    8000013e:	0000a517          	auipc	a0,0xa
    80000142:	f1250513          	addi	a0,a0,-238 # 8000a050 <kmem>
    80000146:	ed1c                	sd	a5,24(a0)
  release(&kmem.lock);
    80000148:	00007097          	auipc	ra,0x7
    8000014c:	266080e7          	jalr	614(ra) # 800073ae <release>

  if(r)
    memset((char*)r, 5, PGSIZE); // fill with junk
    80000150:	6605                	lui	a2,0x1
    80000152:	4595                	li	a1,5
    80000154:	8526                	mv	a0,s1
    80000156:	00000097          	auipc	ra,0x0
    8000015a:	026080e7          	jalr	38(ra) # 8000017c <memset>
  return (void*)r;
}
    8000015e:	8526                	mv	a0,s1
    80000160:	60e2                	ld	ra,24(sp)
    80000162:	6442                	ld	s0,16(sp)
    80000164:	64a2                	ld	s1,8(sp)
    80000166:	6105                	addi	sp,sp,32
    80000168:	8082                	ret
  release(&kmem.lock);
    8000016a:	0000a517          	auipc	a0,0xa
    8000016e:	ee650513          	addi	a0,a0,-282 # 8000a050 <kmem>
    80000172:	00007097          	auipc	ra,0x7
    80000176:	23c080e7          	jalr	572(ra) # 800073ae <release>
  if(r)
    8000017a:	b7d5                	j	8000015e <kalloc+0x42>

000000008000017c <memset>:
#include "types.h"

void*
memset(void *dst, int c, uint n)
{
    8000017c:	1141                	addi	sp,sp,-16
    8000017e:	e422                	sd	s0,8(sp)
    80000180:	0800                	addi	s0,sp,16
  char *cdst = (char *) dst;
  int i;
  for(i = 0; i < n; i++){
    80000182:	ce09                	beqz	a2,8000019c <memset+0x20>
    80000184:	87aa                	mv	a5,a0
    80000186:	fff6071b          	addiw	a4,a2,-1
    8000018a:	1702                	slli	a4,a4,0x20
    8000018c:	9301                	srli	a4,a4,0x20
    8000018e:	0705                	addi	a4,a4,1
    80000190:	972a                	add	a4,a4,a0
    cdst[i] = c;
    80000192:	00b78023          	sb	a1,0(a5) # fffffffffffff000 <end+0xffffffff7ffd7a80>
  for(i = 0; i < n; i++){
    80000196:	0785                	addi	a5,a5,1
    80000198:	fee79de3          	bne	a5,a4,80000192 <memset+0x16>
  }
  return dst;
}
    8000019c:	6422                	ld	s0,8(sp)
    8000019e:	0141                	addi	sp,sp,16
    800001a0:	8082                	ret

00000000800001a2 <memcmp>:

int
memcmp(const void *v1, const void *v2, uint n)
{
    800001a2:	1141                	addi	sp,sp,-16
    800001a4:	e422                	sd	s0,8(sp)
    800001a6:	0800                	addi	s0,sp,16
  const uchar *s1, *s2;

  s1 = v1;
  s2 = v2;
  while(n-- > 0){
    800001a8:	ce15                	beqz	a2,800001e4 <memcmp+0x42>
    800001aa:	fff6069b          	addiw	a3,a2,-1
    if(*s1 != *s2)
    800001ae:	00054783          	lbu	a5,0(a0)
    800001b2:	0005c703          	lbu	a4,0(a1)
    800001b6:	02e79063          	bne	a5,a4,800001d6 <memcmp+0x34>
    800001ba:	1682                	slli	a3,a3,0x20
    800001bc:	9281                	srli	a3,a3,0x20
    800001be:	0685                	addi	a3,a3,1
    800001c0:	96aa                	add	a3,a3,a0
      return *s1 - *s2;
    s1++, s2++;
    800001c2:	0505                	addi	a0,a0,1
    800001c4:	0585                	addi	a1,a1,1
  while(n-- > 0){
    800001c6:	00d50d63          	beq	a0,a3,800001e0 <memcmp+0x3e>
    if(*s1 != *s2)
    800001ca:	00054783          	lbu	a5,0(a0)
    800001ce:	0005c703          	lbu	a4,0(a1)
    800001d2:	fee788e3          	beq	a5,a4,800001c2 <memcmp+0x20>
      return *s1 - *s2;
    800001d6:	40e7853b          	subw	a0,a5,a4
  }

  return 0;
}
    800001da:	6422                	ld	s0,8(sp)
    800001dc:	0141                	addi	sp,sp,16
    800001de:	8082                	ret
  return 0;
    800001e0:	4501                	li	a0,0
    800001e2:	bfe5                	j	800001da <memcmp+0x38>
    800001e4:	4501                	li	a0,0
    800001e6:	bfd5                	j	800001da <memcmp+0x38>

00000000800001e8 <memmove>:

void*
memmove(void *dst, const void *src, uint n)
{
    800001e8:	1141                	addi	sp,sp,-16
    800001ea:	e422                	sd	s0,8(sp)
    800001ec:	0800                	addi	s0,sp,16
  const char *s;
  char *d;

  s = src;
  d = dst;
  if(s < d && s + n > d){
    800001ee:	00a5f963          	bleu	a0,a1,80000200 <memmove+0x18>
    800001f2:	02061713          	slli	a4,a2,0x20
    800001f6:	9301                	srli	a4,a4,0x20
    800001f8:	00e587b3          	add	a5,a1,a4
    800001fc:	02f56563          	bltu	a0,a5,80000226 <memmove+0x3e>
    s += n;
    d += n;
    while(n-- > 0)
      *--d = *--s;
  } else
    while(n-- > 0)
    80000200:	fff6069b          	addiw	a3,a2,-1
    80000204:	ce11                	beqz	a2,80000220 <memmove+0x38>
    80000206:	1682                	slli	a3,a3,0x20
    80000208:	9281                	srli	a3,a3,0x20
    8000020a:	0685                	addi	a3,a3,1
    8000020c:	96ae                	add	a3,a3,a1
    8000020e:	87aa                	mv	a5,a0
      *d++ = *s++;
    80000210:	0585                	addi	a1,a1,1
    80000212:	0785                	addi	a5,a5,1
    80000214:	fff5c703          	lbu	a4,-1(a1)
    80000218:	fee78fa3          	sb	a4,-1(a5)
    while(n-- > 0)
    8000021c:	fed59ae3          	bne	a1,a3,80000210 <memmove+0x28>

  return dst;
}
    80000220:	6422                	ld	s0,8(sp)
    80000222:	0141                	addi	sp,sp,16
    80000224:	8082                	ret
    d += n;
    80000226:	972a                	add	a4,a4,a0
    while(n-- > 0)
    80000228:	fff6069b          	addiw	a3,a2,-1
    8000022c:	da75                	beqz	a2,80000220 <memmove+0x38>
    8000022e:	02069613          	slli	a2,a3,0x20
    80000232:	9201                	srli	a2,a2,0x20
    80000234:	fff64613          	not	a2,a2
    80000238:	963e                	add	a2,a2,a5
      *--d = *--s;
    8000023a:	17fd                	addi	a5,a5,-1
    8000023c:	177d                	addi	a4,a4,-1
    8000023e:	0007c683          	lbu	a3,0(a5)
    80000242:	00d70023          	sb	a3,0(a4)
    while(n-- > 0)
    80000246:	fef61ae3          	bne	a2,a5,8000023a <memmove+0x52>
    8000024a:	bfd9                	j	80000220 <memmove+0x38>

000000008000024c <memcpy>:

// memcpy exists to placate GCC.  Use memmove.
void*
memcpy(void *dst, const void *src, uint n)
{
    8000024c:	1141                	addi	sp,sp,-16
    8000024e:	e406                	sd	ra,8(sp)
    80000250:	e022                	sd	s0,0(sp)
    80000252:	0800                	addi	s0,sp,16
  return memmove(dst, src, n);
    80000254:	00000097          	auipc	ra,0x0
    80000258:	f94080e7          	jalr	-108(ra) # 800001e8 <memmove>
}
    8000025c:	60a2                	ld	ra,8(sp)
    8000025e:	6402                	ld	s0,0(sp)
    80000260:	0141                	addi	sp,sp,16
    80000262:	8082                	ret

0000000080000264 <strncmp>:

int
strncmp(const char *p, const char *q, uint n)
{
    80000264:	1141                	addi	sp,sp,-16
    80000266:	e422                	sd	s0,8(sp)
    80000268:	0800                	addi	s0,sp,16
  while(n > 0 && *p && *p == *q)
    8000026a:	c229                	beqz	a2,800002ac <strncmp+0x48>
    8000026c:	00054783          	lbu	a5,0(a0)
    80000270:	c795                	beqz	a5,8000029c <strncmp+0x38>
    80000272:	0005c703          	lbu	a4,0(a1)
    80000276:	02f71363          	bne	a4,a5,8000029c <strncmp+0x38>
    8000027a:	fff6071b          	addiw	a4,a2,-1
    8000027e:	1702                	slli	a4,a4,0x20
    80000280:	9301                	srli	a4,a4,0x20
    80000282:	0705                	addi	a4,a4,1
    80000284:	972a                	add	a4,a4,a0
    n--, p++, q++;
    80000286:	0505                	addi	a0,a0,1
    80000288:	0585                	addi	a1,a1,1
  while(n > 0 && *p && *p == *q)
    8000028a:	02e50363          	beq	a0,a4,800002b0 <strncmp+0x4c>
    8000028e:	00054783          	lbu	a5,0(a0)
    80000292:	c789                	beqz	a5,8000029c <strncmp+0x38>
    80000294:	0005c683          	lbu	a3,0(a1)
    80000298:	fef687e3          	beq	a3,a5,80000286 <strncmp+0x22>
  if(n == 0)
    return 0;
  return (uchar)*p - (uchar)*q;
    8000029c:	00054503          	lbu	a0,0(a0)
    800002a0:	0005c783          	lbu	a5,0(a1)
    800002a4:	9d1d                	subw	a0,a0,a5
}
    800002a6:	6422                	ld	s0,8(sp)
    800002a8:	0141                	addi	sp,sp,16
    800002aa:	8082                	ret
    return 0;
    800002ac:	4501                	li	a0,0
    800002ae:	bfe5                	j	800002a6 <strncmp+0x42>
    800002b0:	4501                	li	a0,0
    800002b2:	bfd5                	j	800002a6 <strncmp+0x42>

00000000800002b4 <strncpy>:

char*
strncpy(char *s, const char *t, int n)
{
    800002b4:	1141                	addi	sp,sp,-16
    800002b6:	e422                	sd	s0,8(sp)
    800002b8:	0800                	addi	s0,sp,16
  char *os;

  os = s;
  while(n-- > 0 && (*s++ = *t++) != 0)
    800002ba:	872a                	mv	a4,a0
    800002bc:	a011                	j	800002c0 <strncpy+0xc>
    800002be:	8636                	mv	a2,a3
    800002c0:	fff6069b          	addiw	a3,a2,-1
    800002c4:	00c05963          	blez	a2,800002d6 <strncpy+0x22>
    800002c8:	0705                	addi	a4,a4,1
    800002ca:	0005c783          	lbu	a5,0(a1)
    800002ce:	fef70fa3          	sb	a5,-1(a4)
    800002d2:	0585                	addi	a1,a1,1
    800002d4:	f7ed                	bnez	a5,800002be <strncpy+0xa>
    ;
  while(n-- > 0)
    800002d6:	00d05c63          	blez	a3,800002ee <strncpy+0x3a>
    800002da:	86ba                	mv	a3,a4
    *s++ = 0;
    800002dc:	0685                	addi	a3,a3,1
    800002de:	fe068fa3          	sb	zero,-1(a3)
  while(n-- > 0)
    800002e2:	fff6c793          	not	a5,a3
    800002e6:	9fb9                	addw	a5,a5,a4
    800002e8:	9fb1                	addw	a5,a5,a2
    800002ea:	fef049e3          	bgtz	a5,800002dc <strncpy+0x28>
  return os;
}
    800002ee:	6422                	ld	s0,8(sp)
    800002f0:	0141                	addi	sp,sp,16
    800002f2:	8082                	ret

00000000800002f4 <safestrcpy>:

// Like strncpy but guaranteed to NUL-terminate.
char*
safestrcpy(char *s, const char *t, int n)
{
    800002f4:	1141                	addi	sp,sp,-16
    800002f6:	e422                	sd	s0,8(sp)
    800002f8:	0800                	addi	s0,sp,16
  char *os;

  os = s;
  if(n <= 0)
    800002fa:	02c05363          	blez	a2,80000320 <safestrcpy+0x2c>
    800002fe:	fff6069b          	addiw	a3,a2,-1
    80000302:	1682                	slli	a3,a3,0x20
    80000304:	9281                	srli	a3,a3,0x20
    80000306:	96ae                	add	a3,a3,a1
    80000308:	87aa                	mv	a5,a0
    return os;
  while(--n > 0 && (*s++ = *t++) != 0)
    8000030a:	00d58963          	beq	a1,a3,8000031c <safestrcpy+0x28>
    8000030e:	0585                	addi	a1,a1,1
    80000310:	0785                	addi	a5,a5,1
    80000312:	fff5c703          	lbu	a4,-1(a1)
    80000316:	fee78fa3          	sb	a4,-1(a5)
    8000031a:	fb65                	bnez	a4,8000030a <safestrcpy+0x16>
    ;
  *s = 0;
    8000031c:	00078023          	sb	zero,0(a5)
  return os;
}
    80000320:	6422                	ld	s0,8(sp)
    80000322:	0141                	addi	sp,sp,16
    80000324:	8082                	ret

0000000080000326 <strlen>:

int
strlen(const char *s)
{
    80000326:	1141                	addi	sp,sp,-16
    80000328:	e422                	sd	s0,8(sp)
    8000032a:	0800                	addi	s0,sp,16
  int n;

  for(n = 0; s[n]; n++)
    8000032c:	00054783          	lbu	a5,0(a0)
    80000330:	cf91                	beqz	a5,8000034c <strlen+0x26>
    80000332:	0505                	addi	a0,a0,1
    80000334:	87aa                	mv	a5,a0
    80000336:	4685                	li	a3,1
    80000338:	9e89                	subw	a3,a3,a0
    8000033a:	00f6853b          	addw	a0,a3,a5
    8000033e:	0785                	addi	a5,a5,1
    80000340:	fff7c703          	lbu	a4,-1(a5)
    80000344:	fb7d                	bnez	a4,8000033a <strlen+0x14>
    ;
  return n;
}
    80000346:	6422                	ld	s0,8(sp)
    80000348:	0141                	addi	sp,sp,16
    8000034a:	8082                	ret
  for(n = 0; s[n]; n++)
    8000034c:	4501                	li	a0,0
    8000034e:	bfe5                	j	80000346 <strlen+0x20>

0000000080000350 <main>:
volatile static int started = 0;

// start() jumps here in supervisor mode on all CPUs.
void
main()
{
    80000350:	1101                	addi	sp,sp,-32
    80000352:	ec06                	sd	ra,24(sp)
    80000354:	e822                	sd	s0,16(sp)
    80000356:	e426                	sd	s1,8(sp)
    80000358:	1000                	addi	s0,sp,32
  if(cpuid() == 0){
    8000035a:	00001097          	auipc	ra,0x1
    8000035e:	b7a080e7          	jalr	-1158(ra) # 80000ed4 <cpuid>
    kcsaninit();
#endif
    __sync_synchronize();
    started = 1;
  } else {
    while(lockfree_read4((int *) &started) == 0)
    80000362:	0000a497          	auipc	s1,0xa
    80000366:	c9e48493          	addi	s1,s1,-866 # 8000a000 <started>
  if(cpuid() == 0){
    8000036a:	c531                	beqz	a0,800003b6 <main+0x66>
    while(lockfree_read4((int *) &started) == 0)
    8000036c:	8526                	mv	a0,s1
    8000036e:	00007097          	auipc	ra,0x7
    80000372:	09e080e7          	jalr	158(ra) # 8000740c <lockfree_read4>
    80000376:	d97d                	beqz	a0,8000036c <main+0x1c>
      ;
    __sync_synchronize();
    80000378:	0ff0000f          	fence
    printf("hart %d starting\n", cpuid());
    8000037c:	00001097          	auipc	ra,0x1
    80000380:	b58080e7          	jalr	-1192(ra) # 80000ed4 <cpuid>
    80000384:	85aa                	mv	a1,a0
    80000386:	00009517          	auipc	a0,0x9
    8000038a:	cb250513          	addi	a0,a0,-846 # 80009038 <etext+0x38>
    8000038e:	00007097          	auipc	ra,0x7
    80000392:	a4a080e7          	jalr	-1462(ra) # 80006dd8 <printf>
    kvminithart();    // turn on paging
    80000396:	00000097          	auipc	ra,0x0
    8000039a:	0e8080e7          	jalr	232(ra) # 8000047e <kvminithart>
    trapinithart();   // install kernel trap vector
    8000039e:	00001097          	auipc	ra,0x1
    800003a2:	7cc080e7          	jalr	1996(ra) # 80001b6a <trapinithart>
    plicinithart();   // ask PLIC for device interrupts
    800003a6:	00005097          	auipc	ra,0x5
    800003aa:	f1e080e7          	jalr	-226(ra) # 800052c4 <plicinithart>
  }

  scheduler();        
    800003ae:	00001097          	auipc	ra,0x1
    800003b2:	088080e7          	jalr	136(ra) # 80001436 <scheduler>
    consoleinit();
    800003b6:	00007097          	auipc	ra,0x7
    800003ba:	8e6080e7          	jalr	-1818(ra) # 80006c9c <consoleinit>
    printfinit();
    800003be:	00007097          	auipc	ra,0x7
    800003c2:	c00080e7          	jalr	-1024(ra) # 80006fbe <printfinit>
    printf("\n");
    800003c6:	00009517          	auipc	a0,0x9
    800003ca:	c8250513          	addi	a0,a0,-894 # 80009048 <etext+0x48>
    800003ce:	00007097          	auipc	ra,0x7
    800003d2:	a0a080e7          	jalr	-1526(ra) # 80006dd8 <printf>
    printf("xv6 kernel is booting\n");
    800003d6:	00009517          	auipc	a0,0x9
    800003da:	c4a50513          	addi	a0,a0,-950 # 80009020 <etext+0x20>
    800003de:	00007097          	auipc	ra,0x7
    800003e2:	9fa080e7          	jalr	-1542(ra) # 80006dd8 <printf>
    printf("\n");
    800003e6:	00009517          	auipc	a0,0x9
    800003ea:	c6250513          	addi	a0,a0,-926 # 80009048 <etext+0x48>
    800003ee:	00007097          	auipc	ra,0x7
    800003f2:	9ea080e7          	jalr	-1558(ra) # 80006dd8 <printf>
    kinit();         // physical page allocator
    800003f6:	00000097          	auipc	ra,0x0
    800003fa:	cea080e7          	jalr	-790(ra) # 800000e0 <kinit>
    kvminit();       // create kernel page table
    800003fe:	00000097          	auipc	ra,0x0
    80000402:	350080e7          	jalr	848(ra) # 8000074e <kvminit>
    kvminithart();   // turn on paging
    80000406:	00000097          	auipc	ra,0x0
    8000040a:	078080e7          	jalr	120(ra) # 8000047e <kvminithart>
    procinit();      // process table
    8000040e:	00001097          	auipc	ra,0x1
    80000412:	a2e080e7          	jalr	-1490(ra) # 80000e3c <procinit>
    trapinit();      // trap vectors
    80000416:	00001097          	auipc	ra,0x1
    8000041a:	72c080e7          	jalr	1836(ra) # 80001b42 <trapinit>
    trapinithart();  // install kernel trap vector
    8000041e:	00001097          	auipc	ra,0x1
    80000422:	74c080e7          	jalr	1868(ra) # 80001b6a <trapinithart>
    plicinit();      // set up interrupt controller
    80000426:	00005097          	auipc	ra,0x5
    8000042a:	e74080e7          	jalr	-396(ra) # 8000529a <plicinit>
    plicinithart();  // ask PLIC for device interrupts
    8000042e:	00005097          	auipc	ra,0x5
    80000432:	e96080e7          	jalr	-362(ra) # 800052c4 <plicinithart>
    binit();         // buffer cache
    80000436:	00002097          	auipc	ra,0x2
    8000043a:	eb4080e7          	jalr	-332(ra) # 800022ea <binit>
    iinit();         // inode cache
    8000043e:	00002097          	auipc	ra,0x2
    80000442:	586080e7          	jalr	1414(ra) # 800029c4 <iinit>
    fileinit();      // file table
    80000446:	00003097          	auipc	ra,0x3
    8000044a:	564080e7          	jalr	1380(ra) # 800039aa <fileinit>
    virtio_disk_init(); // emulated hard disk
    8000044e:	00005097          	auipc	ra,0x5
    80000452:	f9e080e7          	jalr	-98(ra) # 800053ec <virtio_disk_init>
    pci_init();
    80000456:	00006097          	auipc	ra,0x6
    8000045a:	36e080e7          	jalr	878(ra) # 800067c4 <pci_init>
    sockinit();
    8000045e:	00006097          	auipc	ra,0x6
    80000462:	f50080e7          	jalr	-176(ra) # 800063ae <sockinit>
    userinit();      // first user process
    80000466:	00001097          	auipc	ra,0x1
    8000046a:	d66080e7          	jalr	-666(ra) # 800011cc <userinit>
    __sync_synchronize();
    8000046e:	0ff0000f          	fence
    started = 1;
    80000472:	4785                	li	a5,1
    80000474:	0000a717          	auipc	a4,0xa
    80000478:	b8f72623          	sw	a5,-1140(a4) # 8000a000 <started>
    8000047c:	bf0d                	j	800003ae <main+0x5e>

000000008000047e <kvminithart>:

// Switch h/w page table register to the kernel's page table,
// and enable paging.
void
kvminithart()
{
    8000047e:	1141                	addi	sp,sp,-16
    80000480:	e422                	sd	s0,8(sp)
    80000482:	0800                	addi	s0,sp,16
  w_satp(MAKE_SATP(kernel_pagetable));
    80000484:	0000a797          	auipc	a5,0xa
    80000488:	b8478793          	addi	a5,a5,-1148 # 8000a008 <kernel_pagetable>
    8000048c:	639c                	ld	a5,0(a5)
    8000048e:	83b1                	srli	a5,a5,0xc
    80000490:	577d                	li	a4,-1
    80000492:	177e                	slli	a4,a4,0x3f
    80000494:	8fd9                	or	a5,a5,a4
// supervisor address translation and protection;
// holds the address of the page table.
static inline void 
w_satp(uint64 x)
{
  asm volatile("csrw satp, %0" : : "r" (x));
    80000496:	18079073          	csrw	satp,a5
// flush the TLB.
static inline void
sfence_vma()
{
  // the zero, zero means flush all TLB entries.
  asm volatile("sfence.vma zero, zero");
    8000049a:	12000073          	sfence.vma
  sfence_vma();
}
    8000049e:	6422                	ld	s0,8(sp)
    800004a0:	0141                	addi	sp,sp,16
    800004a2:	8082                	ret

00000000800004a4 <walk>:
//   21..29 -- 9 bits of level-1 index.
//   12..20 -- 9 bits of level-0 index.
//    0..11 -- 12 bits of byte offset within the page.
pte_t *
walk(pagetable_t pagetable, uint64 va, int alloc)
{
    800004a4:	7139                	addi	sp,sp,-64
    800004a6:	fc06                	sd	ra,56(sp)
    800004a8:	f822                	sd	s0,48(sp)
    800004aa:	f426                	sd	s1,40(sp)
    800004ac:	f04a                	sd	s2,32(sp)
    800004ae:	ec4e                	sd	s3,24(sp)
    800004b0:	e852                	sd	s4,16(sp)
    800004b2:	e456                	sd	s5,8(sp)
    800004b4:	e05a                	sd	s6,0(sp)
    800004b6:	0080                	addi	s0,sp,64
    800004b8:	84aa                	mv	s1,a0
    800004ba:	89ae                	mv	s3,a1
    800004bc:	8b32                	mv	s6,a2
  if(va >= MAXVA)
    800004be:	57fd                	li	a5,-1
    800004c0:	83e9                	srli	a5,a5,0x1a
    800004c2:	4a79                	li	s4,30
    panic("walk");

  for(int level = 2; level > 0; level--) {
    800004c4:	4ab1                	li	s5,12
  if(va >= MAXVA)
    800004c6:	04b7f263          	bleu	a1,a5,8000050a <walk+0x66>
    panic("walk");
    800004ca:	00009517          	auipc	a0,0x9
    800004ce:	b8650513          	addi	a0,a0,-1146 # 80009050 <etext+0x50>
    800004d2:	00007097          	auipc	ra,0x7
    800004d6:	8bc080e7          	jalr	-1860(ra) # 80006d8e <panic>
    pte_t *pte = &pagetable[PX(level, va)];
    if(*pte & PTE_V) {
      pagetable = (pagetable_t)PTE2PA(*pte);
    } else {
      if(!alloc || (pagetable = (pde_t*)kalloc()) == 0)
    800004da:	060b0663          	beqz	s6,80000546 <walk+0xa2>
    800004de:	00000097          	auipc	ra,0x0
    800004e2:	c3e080e7          	jalr	-962(ra) # 8000011c <kalloc>
    800004e6:	84aa                	mv	s1,a0
    800004e8:	c529                	beqz	a0,80000532 <walk+0x8e>
        return 0;
      memset(pagetable, 0, PGSIZE);
    800004ea:	6605                	lui	a2,0x1
    800004ec:	4581                	li	a1,0
    800004ee:	00000097          	auipc	ra,0x0
    800004f2:	c8e080e7          	jalr	-882(ra) # 8000017c <memset>
      *pte = PA2PTE(pagetable) | PTE_V;
    800004f6:	00c4d793          	srli	a5,s1,0xc
    800004fa:	07aa                	slli	a5,a5,0xa
    800004fc:	0017e793          	ori	a5,a5,1
    80000500:	00f93023          	sd	a5,0(s2)
  for(int level = 2; level > 0; level--) {
    80000504:	3a5d                	addiw	s4,s4,-9
    80000506:	035a0063          	beq	s4,s5,80000526 <walk+0x82>
    pte_t *pte = &pagetable[PX(level, va)];
    8000050a:	0149d933          	srl	s2,s3,s4
    8000050e:	1ff97913          	andi	s2,s2,511
    80000512:	090e                	slli	s2,s2,0x3
    80000514:	9926                	add	s2,s2,s1
    if(*pte & PTE_V) {
    80000516:	00093483          	ld	s1,0(s2)
    8000051a:	0014f793          	andi	a5,s1,1
    8000051e:	dfd5                	beqz	a5,800004da <walk+0x36>
      pagetable = (pagetable_t)PTE2PA(*pte);
    80000520:	80a9                	srli	s1,s1,0xa
    80000522:	04b2                	slli	s1,s1,0xc
    80000524:	b7c5                	j	80000504 <walk+0x60>
    }
  }
  return &pagetable[PX(0, va)];
    80000526:	00c9d513          	srli	a0,s3,0xc
    8000052a:	1ff57513          	andi	a0,a0,511
    8000052e:	050e                	slli	a0,a0,0x3
    80000530:	9526                	add	a0,a0,s1
}
    80000532:	70e2                	ld	ra,56(sp)
    80000534:	7442                	ld	s0,48(sp)
    80000536:	74a2                	ld	s1,40(sp)
    80000538:	7902                	ld	s2,32(sp)
    8000053a:	69e2                	ld	s3,24(sp)
    8000053c:	6a42                	ld	s4,16(sp)
    8000053e:	6aa2                	ld	s5,8(sp)
    80000540:	6b02                	ld	s6,0(sp)
    80000542:	6121                	addi	sp,sp,64
    80000544:	8082                	ret
        return 0;
    80000546:	4501                	li	a0,0
    80000548:	b7ed                	j	80000532 <walk+0x8e>

000000008000054a <walkaddr>:
walkaddr(pagetable_t pagetable, uint64 va)
{
  pte_t *pte;
  uint64 pa;

  if(va >= MAXVA)
    8000054a:	57fd                	li	a5,-1
    8000054c:	83e9                	srli	a5,a5,0x1a
    8000054e:	00b7f463          	bleu	a1,a5,80000556 <walkaddr+0xc>
    return 0;
    80000552:	4501                	li	a0,0
    return 0;
  if((*pte & PTE_U) == 0)
    return 0;
  pa = PTE2PA(*pte);
  return pa;
}
    80000554:	8082                	ret
{
    80000556:	1141                	addi	sp,sp,-16
    80000558:	e406                	sd	ra,8(sp)
    8000055a:	e022                	sd	s0,0(sp)
    8000055c:	0800                	addi	s0,sp,16
  pte = walk(pagetable, va, 0);
    8000055e:	4601                	li	a2,0
    80000560:	00000097          	auipc	ra,0x0
    80000564:	f44080e7          	jalr	-188(ra) # 800004a4 <walk>
  if(pte == 0)
    80000568:	c105                	beqz	a0,80000588 <walkaddr+0x3e>
  if((*pte & PTE_V) == 0)
    8000056a:	611c                	ld	a5,0(a0)
  if((*pte & PTE_U) == 0)
    8000056c:	0117f693          	andi	a3,a5,17
    80000570:	4745                	li	a4,17
    return 0;
    80000572:	4501                	li	a0,0
  if((*pte & PTE_U) == 0)
    80000574:	00e68663          	beq	a3,a4,80000580 <walkaddr+0x36>
}
    80000578:	60a2                	ld	ra,8(sp)
    8000057a:	6402                	ld	s0,0(sp)
    8000057c:	0141                	addi	sp,sp,16
    8000057e:	8082                	ret
  pa = PTE2PA(*pte);
    80000580:	00a7d513          	srli	a0,a5,0xa
    80000584:	0532                	slli	a0,a0,0xc
  return pa;
    80000586:	bfcd                	j	80000578 <walkaddr+0x2e>
    return 0;
    80000588:	4501                	li	a0,0
    8000058a:	b7fd                	j	80000578 <walkaddr+0x2e>

000000008000058c <mappages>:
// physical addresses starting at pa. va and size might not
// be page-aligned. Returns 0 on success, -1 if walk() couldn't
// allocate a needed page-table page.
int
mappages(pagetable_t pagetable, uint64 va, uint64 size, uint64 pa, int perm)
{
    8000058c:	715d                	addi	sp,sp,-80
    8000058e:	e486                	sd	ra,72(sp)
    80000590:	e0a2                	sd	s0,64(sp)
    80000592:	fc26                	sd	s1,56(sp)
    80000594:	f84a                	sd	s2,48(sp)
    80000596:	f44e                	sd	s3,40(sp)
    80000598:	f052                	sd	s4,32(sp)
    8000059a:	ec56                	sd	s5,24(sp)
    8000059c:	e85a                	sd	s6,16(sp)
    8000059e:	e45e                	sd	s7,8(sp)
    800005a0:	0880                	addi	s0,sp,80
    800005a2:	8aaa                	mv	s5,a0
    800005a4:	8b3a                	mv	s6,a4
  uint64 a, last;
  pte_t *pte;

  a = PGROUNDDOWN(va);
    800005a6:	79fd                	lui	s3,0xfffff
    800005a8:	0135fa33          	and	s4,a1,s3
  last = PGROUNDDOWN(va + size - 1);
    800005ac:	167d                	addi	a2,a2,-1
    800005ae:	962e                	add	a2,a2,a1
    800005b0:	013679b3          	and	s3,a2,s3
  a = PGROUNDDOWN(va);
    800005b4:	8952                	mv	s2,s4
    800005b6:	41468a33          	sub	s4,a3,s4
    if(*pte & PTE_V)
      panic("remap");
    *pte = PA2PTE(pa) | perm | PTE_V;
    if(a == last)
      break;
    a += PGSIZE;
    800005ba:	6b85                	lui	s7,0x1
    800005bc:	a811                	j	800005d0 <mappages+0x44>
      panic("remap");
    800005be:	00009517          	auipc	a0,0x9
    800005c2:	a9a50513          	addi	a0,a0,-1382 # 80009058 <etext+0x58>
    800005c6:	00006097          	auipc	ra,0x6
    800005ca:	7c8080e7          	jalr	1992(ra) # 80006d8e <panic>
    a += PGSIZE;
    800005ce:	995e                	add	s2,s2,s7
  for(;;){
    800005d0:	012a04b3          	add	s1,s4,s2
    if((pte = walk(pagetable, a, 1)) == 0)
    800005d4:	4605                	li	a2,1
    800005d6:	85ca                	mv	a1,s2
    800005d8:	8556                	mv	a0,s5
    800005da:	00000097          	auipc	ra,0x0
    800005de:	eca080e7          	jalr	-310(ra) # 800004a4 <walk>
    800005e2:	cd19                	beqz	a0,80000600 <mappages+0x74>
    if(*pte & PTE_V)
    800005e4:	611c                	ld	a5,0(a0)
    800005e6:	8b85                	andi	a5,a5,1
    800005e8:	fbf9                	bnez	a5,800005be <mappages+0x32>
    *pte = PA2PTE(pa) | perm | PTE_V;
    800005ea:	80b1                	srli	s1,s1,0xc
    800005ec:	04aa                	slli	s1,s1,0xa
    800005ee:	0164e4b3          	or	s1,s1,s6
    800005f2:	0014e493          	ori	s1,s1,1
    800005f6:	e104                	sd	s1,0(a0)
    if(a == last)
    800005f8:	fd391be3          	bne	s2,s3,800005ce <mappages+0x42>
    pa += PGSIZE;
  }
  return 0;
    800005fc:	4501                	li	a0,0
    800005fe:	a011                	j	80000602 <mappages+0x76>
      return -1;
    80000600:	557d                	li	a0,-1
}
    80000602:	60a6                	ld	ra,72(sp)
    80000604:	6406                	ld	s0,64(sp)
    80000606:	74e2                	ld	s1,56(sp)
    80000608:	7942                	ld	s2,48(sp)
    8000060a:	79a2                	ld	s3,40(sp)
    8000060c:	7a02                	ld	s4,32(sp)
    8000060e:	6ae2                	ld	s5,24(sp)
    80000610:	6b42                	ld	s6,16(sp)
    80000612:	6ba2                	ld	s7,8(sp)
    80000614:	6161                	addi	sp,sp,80
    80000616:	8082                	ret

0000000080000618 <kvmmap>:
{
    80000618:	1141                	addi	sp,sp,-16
    8000061a:	e406                	sd	ra,8(sp)
    8000061c:	e022                	sd	s0,0(sp)
    8000061e:	0800                	addi	s0,sp,16
    80000620:	87b6                	mv	a5,a3
  if(mappages(kpgtbl, va, sz, pa, perm) != 0)
    80000622:	86b2                	mv	a3,a2
    80000624:	863e                	mv	a2,a5
    80000626:	00000097          	auipc	ra,0x0
    8000062a:	f66080e7          	jalr	-154(ra) # 8000058c <mappages>
    8000062e:	e509                	bnez	a0,80000638 <kvmmap+0x20>
}
    80000630:	60a2                	ld	ra,8(sp)
    80000632:	6402                	ld	s0,0(sp)
    80000634:	0141                	addi	sp,sp,16
    80000636:	8082                	ret
    panic("kvmmap");
    80000638:	00009517          	auipc	a0,0x9
    8000063c:	a2850513          	addi	a0,a0,-1496 # 80009060 <etext+0x60>
    80000640:	00006097          	auipc	ra,0x6
    80000644:	74e080e7          	jalr	1870(ra) # 80006d8e <panic>

0000000080000648 <kvmmake>:
{
    80000648:	1101                	addi	sp,sp,-32
    8000064a:	ec06                	sd	ra,24(sp)
    8000064c:	e822                	sd	s0,16(sp)
    8000064e:	e426                	sd	s1,8(sp)
    80000650:	e04a                	sd	s2,0(sp)
    80000652:	1000                	addi	s0,sp,32
  kpgtbl = (pagetable_t) kalloc();
    80000654:	00000097          	auipc	ra,0x0
    80000658:	ac8080e7          	jalr	-1336(ra) # 8000011c <kalloc>
    8000065c:	84aa                	mv	s1,a0
  memset(kpgtbl, 0, PGSIZE);
    8000065e:	6605                	lui	a2,0x1
    80000660:	4581                	li	a1,0
    80000662:	00000097          	auipc	ra,0x0
    80000666:	b1a080e7          	jalr	-1254(ra) # 8000017c <memset>
  kvmmap(kpgtbl, UART0, UART0, PGSIZE, PTE_R | PTE_W);
    8000066a:	4719                	li	a4,6
    8000066c:	6685                	lui	a3,0x1
    8000066e:	10000637          	lui	a2,0x10000
    80000672:	100005b7          	lui	a1,0x10000
    80000676:	8526                	mv	a0,s1
    80000678:	00000097          	auipc	ra,0x0
    8000067c:	fa0080e7          	jalr	-96(ra) # 80000618 <kvmmap>
  kvmmap(kpgtbl, VIRTIO0, VIRTIO0, PGSIZE, PTE_R | PTE_W);
    80000680:	4719                	li	a4,6
    80000682:	6685                	lui	a3,0x1
    80000684:	10001637          	lui	a2,0x10001
    80000688:	100015b7          	lui	a1,0x10001
    8000068c:	8526                	mv	a0,s1
    8000068e:	00000097          	auipc	ra,0x0
    80000692:	f8a080e7          	jalr	-118(ra) # 80000618 <kvmmap>
  kvmmap(kpgtbl, 0x30000000L, 0x30000000L, 0x10000000, PTE_R | PTE_W);
    80000696:	4719                	li	a4,6
    80000698:	100006b7          	lui	a3,0x10000
    8000069c:	30000637          	lui	a2,0x30000
    800006a0:	300005b7          	lui	a1,0x30000
    800006a4:	8526                	mv	a0,s1
    800006a6:	00000097          	auipc	ra,0x0
    800006aa:	f72080e7          	jalr	-142(ra) # 80000618 <kvmmap>
  kvmmap(kpgtbl, 0x40000000L, 0x40000000L, 0x20000, PTE_R | PTE_W);
    800006ae:	4719                	li	a4,6
    800006b0:	000206b7          	lui	a3,0x20
    800006b4:	40000637          	lui	a2,0x40000
    800006b8:	400005b7          	lui	a1,0x40000
    800006bc:	8526                	mv	a0,s1
    800006be:	00000097          	auipc	ra,0x0
    800006c2:	f5a080e7          	jalr	-166(ra) # 80000618 <kvmmap>
  kvmmap(kpgtbl, PLIC, PLIC, 0x400000, PTE_R | PTE_W);
    800006c6:	4719                	li	a4,6
    800006c8:	004006b7          	lui	a3,0x400
    800006cc:	0c000637          	lui	a2,0xc000
    800006d0:	0c0005b7          	lui	a1,0xc000
    800006d4:	8526                	mv	a0,s1
    800006d6:	00000097          	auipc	ra,0x0
    800006da:	f42080e7          	jalr	-190(ra) # 80000618 <kvmmap>
  kvmmap(kpgtbl, KERNBASE, KERNBASE, (uint64)etext-KERNBASE, PTE_R | PTE_X);
    800006de:	00009917          	auipc	s2,0x9
    800006e2:	92290913          	addi	s2,s2,-1758 # 80009000 <etext>
    800006e6:	4729                	li	a4,10
    800006e8:	80009697          	auipc	a3,0x80009
    800006ec:	91868693          	addi	a3,a3,-1768 # 9000 <_entry-0x7fff7000>
    800006f0:	4605                	li	a2,1
    800006f2:	067e                	slli	a2,a2,0x1f
    800006f4:	85b2                	mv	a1,a2
    800006f6:	8526                	mv	a0,s1
    800006f8:	00000097          	auipc	ra,0x0
    800006fc:	f20080e7          	jalr	-224(ra) # 80000618 <kvmmap>
  kvmmap(kpgtbl, (uint64)etext, (uint64)etext, PHYSTOP-(uint64)etext, PTE_R | PTE_W);
    80000700:	4719                	li	a4,6
    80000702:	46c5                	li	a3,17
    80000704:	06ee                	slli	a3,a3,0x1b
    80000706:	412686b3          	sub	a3,a3,s2
    8000070a:	864a                	mv	a2,s2
    8000070c:	85ca                	mv	a1,s2
    8000070e:	8526                	mv	a0,s1
    80000710:	00000097          	auipc	ra,0x0
    80000714:	f08080e7          	jalr	-248(ra) # 80000618 <kvmmap>
  kvmmap(kpgtbl, TRAMPOLINE, (uint64)trampoline, PGSIZE, PTE_R | PTE_X);
    80000718:	4729                	li	a4,10
    8000071a:	6685                	lui	a3,0x1
    8000071c:	00008617          	auipc	a2,0x8
    80000720:	8e460613          	addi	a2,a2,-1820 # 80008000 <_trampoline>
    80000724:	040005b7          	lui	a1,0x4000
    80000728:	15fd                	addi	a1,a1,-1
    8000072a:	05b2                	slli	a1,a1,0xc
    8000072c:	8526                	mv	a0,s1
    8000072e:	00000097          	auipc	ra,0x0
    80000732:	eea080e7          	jalr	-278(ra) # 80000618 <kvmmap>
  proc_mapstacks(kpgtbl);
    80000736:	8526                	mv	a0,s1
    80000738:	00000097          	auipc	ra,0x0
    8000073c:	66e080e7          	jalr	1646(ra) # 80000da6 <proc_mapstacks>
}
    80000740:	8526                	mv	a0,s1
    80000742:	60e2                	ld	ra,24(sp)
    80000744:	6442                	ld	s0,16(sp)
    80000746:	64a2                	ld	s1,8(sp)
    80000748:	6902                	ld	s2,0(sp)
    8000074a:	6105                	addi	sp,sp,32
    8000074c:	8082                	ret

000000008000074e <kvminit>:
{
    8000074e:	1141                	addi	sp,sp,-16
    80000750:	e406                	sd	ra,8(sp)
    80000752:	e022                	sd	s0,0(sp)
    80000754:	0800                	addi	s0,sp,16
  kernel_pagetable = kvmmake();
    80000756:	00000097          	auipc	ra,0x0
    8000075a:	ef2080e7          	jalr	-270(ra) # 80000648 <kvmmake>
    8000075e:	0000a797          	auipc	a5,0xa
    80000762:	8aa7b523          	sd	a0,-1878(a5) # 8000a008 <kernel_pagetable>
}
    80000766:	60a2                	ld	ra,8(sp)
    80000768:	6402                	ld	s0,0(sp)
    8000076a:	0141                	addi	sp,sp,16
    8000076c:	8082                	ret

000000008000076e <uvmunmap>:
// Remove npages of mappings starting from va. va must be
// page-aligned. The mappings must exist.
// Optionally free the physical memory.
void
uvmunmap(pagetable_t pagetable, uint64 va, uint64 npages, int do_free)
{
    8000076e:	715d                	addi	sp,sp,-80
    80000770:	e486                	sd	ra,72(sp)
    80000772:	e0a2                	sd	s0,64(sp)
    80000774:	fc26                	sd	s1,56(sp)
    80000776:	f84a                	sd	s2,48(sp)
    80000778:	f44e                	sd	s3,40(sp)
    8000077a:	f052                	sd	s4,32(sp)
    8000077c:	ec56                	sd	s5,24(sp)
    8000077e:	e85a                	sd	s6,16(sp)
    80000780:	e45e                	sd	s7,8(sp)
    80000782:	0880                	addi	s0,sp,80
  uint64 a;
  pte_t *pte;

  if((va % PGSIZE) != 0)
    80000784:	6785                	lui	a5,0x1
    80000786:	17fd                	addi	a5,a5,-1
    80000788:	8fed                	and	a5,a5,a1
    8000078a:	e795                	bnez	a5,800007b6 <uvmunmap+0x48>
    8000078c:	8a2a                	mv	s4,a0
    8000078e:	84ae                	mv	s1,a1
    80000790:	8ab6                	mv	s5,a3
    panic("uvmunmap: not aligned");

  for(a = va; a < va + npages*PGSIZE; a += PGSIZE){
    80000792:	0632                	slli	a2,a2,0xc
    80000794:	00b609b3          	add	s3,a2,a1
      panic("uvmunmap: walk");
    if((*pte & PTE_V) == 0) {
      printf("va=%p pte=%p\n", a, *pte);
      panic("uvmunmap: not mapped");
    }
    if(PTE_FLAGS(*pte) == PTE_V)
    80000798:	4b85                	li	s7,1
  for(a = va; a < va + npages*PGSIZE; a += PGSIZE){
    8000079a:	6b05                	lui	s6,0x1
    8000079c:	0935e263          	bltu	a1,s3,80000820 <uvmunmap+0xb2>
      uint64 pa = PTE2PA(*pte);
      kfree((void*)pa);
    }
    *pte = 0;
  }
}
    800007a0:	60a6                	ld	ra,72(sp)
    800007a2:	6406                	ld	s0,64(sp)
    800007a4:	74e2                	ld	s1,56(sp)
    800007a6:	7942                	ld	s2,48(sp)
    800007a8:	79a2                	ld	s3,40(sp)
    800007aa:	7a02                	ld	s4,32(sp)
    800007ac:	6ae2                	ld	s5,24(sp)
    800007ae:	6b42                	ld	s6,16(sp)
    800007b0:	6ba2                	ld	s7,8(sp)
    800007b2:	6161                	addi	sp,sp,80
    800007b4:	8082                	ret
    panic("uvmunmap: not aligned");
    800007b6:	00009517          	auipc	a0,0x9
    800007ba:	8b250513          	addi	a0,a0,-1870 # 80009068 <etext+0x68>
    800007be:	00006097          	auipc	ra,0x6
    800007c2:	5d0080e7          	jalr	1488(ra) # 80006d8e <panic>
      panic("uvmunmap: walk");
    800007c6:	00009517          	auipc	a0,0x9
    800007ca:	8ba50513          	addi	a0,a0,-1862 # 80009080 <etext+0x80>
    800007ce:	00006097          	auipc	ra,0x6
    800007d2:	5c0080e7          	jalr	1472(ra) # 80006d8e <panic>
      printf("va=%p pte=%p\n", a, *pte);
    800007d6:	862a                	mv	a2,a0
    800007d8:	85a6                	mv	a1,s1
    800007da:	00009517          	auipc	a0,0x9
    800007de:	8b650513          	addi	a0,a0,-1866 # 80009090 <etext+0x90>
    800007e2:	00006097          	auipc	ra,0x6
    800007e6:	5f6080e7          	jalr	1526(ra) # 80006dd8 <printf>
      panic("uvmunmap: not mapped");
    800007ea:	00009517          	auipc	a0,0x9
    800007ee:	8b650513          	addi	a0,a0,-1866 # 800090a0 <etext+0xa0>
    800007f2:	00006097          	auipc	ra,0x6
    800007f6:	59c080e7          	jalr	1436(ra) # 80006d8e <panic>
      panic("uvmunmap: not a leaf");
    800007fa:	00009517          	auipc	a0,0x9
    800007fe:	8be50513          	addi	a0,a0,-1858 # 800090b8 <etext+0xb8>
    80000802:	00006097          	auipc	ra,0x6
    80000806:	58c080e7          	jalr	1420(ra) # 80006d8e <panic>
      uint64 pa = PTE2PA(*pte);
    8000080a:	8129                	srli	a0,a0,0xa
      kfree((void*)pa);
    8000080c:	0532                	slli	a0,a0,0xc
    8000080e:	00000097          	auipc	ra,0x0
    80000812:	80e080e7          	jalr	-2034(ra) # 8000001c <kfree>
    *pte = 0;
    80000816:	00093023          	sd	zero,0(s2)
  for(a = va; a < va + npages*PGSIZE; a += PGSIZE){
    8000081a:	94da                	add	s1,s1,s6
    8000081c:	f934f2e3          	bleu	s3,s1,800007a0 <uvmunmap+0x32>
    if((pte = walk(pagetable, a, 0)) == 0)
    80000820:	4601                	li	a2,0
    80000822:	85a6                	mv	a1,s1
    80000824:	8552                	mv	a0,s4
    80000826:	00000097          	auipc	ra,0x0
    8000082a:	c7e080e7          	jalr	-898(ra) # 800004a4 <walk>
    8000082e:	892a                	mv	s2,a0
    80000830:	d959                	beqz	a0,800007c6 <uvmunmap+0x58>
    if((*pte & PTE_V) == 0) {
    80000832:	6108                	ld	a0,0(a0)
    80000834:	00157793          	andi	a5,a0,1
    80000838:	dfd9                	beqz	a5,800007d6 <uvmunmap+0x68>
    if(PTE_FLAGS(*pte) == PTE_V)
    8000083a:	3ff57793          	andi	a5,a0,1023
    8000083e:	fb778ee3          	beq	a5,s7,800007fa <uvmunmap+0x8c>
    if(do_free){
    80000842:	fc0a8ae3          	beqz	s5,80000816 <uvmunmap+0xa8>
    80000846:	b7d1                	j	8000080a <uvmunmap+0x9c>

0000000080000848 <uvmcreate>:

// create an empty user page table.
// returns 0 if out of memory.
pagetable_t
uvmcreate()
{
    80000848:	1101                	addi	sp,sp,-32
    8000084a:	ec06                	sd	ra,24(sp)
    8000084c:	e822                	sd	s0,16(sp)
    8000084e:	e426                	sd	s1,8(sp)
    80000850:	1000                	addi	s0,sp,32
  pagetable_t pagetable;
  pagetable = (pagetable_t) kalloc();
    80000852:	00000097          	auipc	ra,0x0
    80000856:	8ca080e7          	jalr	-1846(ra) # 8000011c <kalloc>
    8000085a:	84aa                	mv	s1,a0
  if(pagetable == 0)
    8000085c:	c519                	beqz	a0,8000086a <uvmcreate+0x22>
    return 0;
  memset(pagetable, 0, PGSIZE);
    8000085e:	6605                	lui	a2,0x1
    80000860:	4581                	li	a1,0
    80000862:	00000097          	auipc	ra,0x0
    80000866:	91a080e7          	jalr	-1766(ra) # 8000017c <memset>
  return pagetable;
}
    8000086a:	8526                	mv	a0,s1
    8000086c:	60e2                	ld	ra,24(sp)
    8000086e:	6442                	ld	s0,16(sp)
    80000870:	64a2                	ld	s1,8(sp)
    80000872:	6105                	addi	sp,sp,32
    80000874:	8082                	ret

0000000080000876 <uvminit>:
// Load the user initcode into address 0 of pagetable,
// for the very first process.
// sz must be less than a page.
void
uvminit(pagetable_t pagetable, uchar *src, uint sz)
{
    80000876:	7179                	addi	sp,sp,-48
    80000878:	f406                	sd	ra,40(sp)
    8000087a:	f022                	sd	s0,32(sp)
    8000087c:	ec26                	sd	s1,24(sp)
    8000087e:	e84a                	sd	s2,16(sp)
    80000880:	e44e                	sd	s3,8(sp)
    80000882:	e052                	sd	s4,0(sp)
    80000884:	1800                	addi	s0,sp,48
  char *mem;

  if(sz >= PGSIZE)
    80000886:	6785                	lui	a5,0x1
    80000888:	04f67863          	bleu	a5,a2,800008d8 <uvminit+0x62>
    8000088c:	8a2a                	mv	s4,a0
    8000088e:	89ae                	mv	s3,a1
    80000890:	84b2                	mv	s1,a2
    panic("inituvm: more than a page");
  mem = kalloc();
    80000892:	00000097          	auipc	ra,0x0
    80000896:	88a080e7          	jalr	-1910(ra) # 8000011c <kalloc>
    8000089a:	892a                	mv	s2,a0
  memset(mem, 0, PGSIZE);
    8000089c:	6605                	lui	a2,0x1
    8000089e:	4581                	li	a1,0
    800008a0:	00000097          	auipc	ra,0x0
    800008a4:	8dc080e7          	jalr	-1828(ra) # 8000017c <memset>
  mappages(pagetable, 0, PGSIZE, (uint64)mem, PTE_W|PTE_R|PTE_X|PTE_U);
    800008a8:	4779                	li	a4,30
    800008aa:	86ca                	mv	a3,s2
    800008ac:	6605                	lui	a2,0x1
    800008ae:	4581                	li	a1,0
    800008b0:	8552                	mv	a0,s4
    800008b2:	00000097          	auipc	ra,0x0
    800008b6:	cda080e7          	jalr	-806(ra) # 8000058c <mappages>
  memmove(mem, src, sz);
    800008ba:	8626                	mv	a2,s1
    800008bc:	85ce                	mv	a1,s3
    800008be:	854a                	mv	a0,s2
    800008c0:	00000097          	auipc	ra,0x0
    800008c4:	928080e7          	jalr	-1752(ra) # 800001e8 <memmove>
}
    800008c8:	70a2                	ld	ra,40(sp)
    800008ca:	7402                	ld	s0,32(sp)
    800008cc:	64e2                	ld	s1,24(sp)
    800008ce:	6942                	ld	s2,16(sp)
    800008d0:	69a2                	ld	s3,8(sp)
    800008d2:	6a02                	ld	s4,0(sp)
    800008d4:	6145                	addi	sp,sp,48
    800008d6:	8082                	ret
    panic("inituvm: more than a page");
    800008d8:	00008517          	auipc	a0,0x8
    800008dc:	7f850513          	addi	a0,a0,2040 # 800090d0 <etext+0xd0>
    800008e0:	00006097          	auipc	ra,0x6
    800008e4:	4ae080e7          	jalr	1198(ra) # 80006d8e <panic>

00000000800008e8 <uvmdealloc>:
// newsz.  oldsz and newsz need not be page-aligned, nor does newsz
// need to be less than oldsz.  oldsz can be larger than the actual
// process size.  Returns the new process size.
uint64
uvmdealloc(pagetable_t pagetable, uint64 oldsz, uint64 newsz)
{
    800008e8:	1101                	addi	sp,sp,-32
    800008ea:	ec06                	sd	ra,24(sp)
    800008ec:	e822                	sd	s0,16(sp)
    800008ee:	e426                	sd	s1,8(sp)
    800008f0:	1000                	addi	s0,sp,32
  if(newsz >= oldsz)
    return oldsz;
    800008f2:	84ae                	mv	s1,a1
  if(newsz >= oldsz)
    800008f4:	00b67d63          	bleu	a1,a2,8000090e <uvmdealloc+0x26>
    800008f8:	84b2                	mv	s1,a2

  if(PGROUNDUP(newsz) < PGROUNDUP(oldsz)){
    800008fa:	6605                	lui	a2,0x1
    800008fc:	167d                	addi	a2,a2,-1
    800008fe:	00c487b3          	add	a5,s1,a2
    80000902:	777d                	lui	a4,0xfffff
    80000904:	8ff9                	and	a5,a5,a4
    80000906:	962e                	add	a2,a2,a1
    80000908:	8e79                	and	a2,a2,a4
    8000090a:	00c7e863          	bltu	a5,a2,8000091a <uvmdealloc+0x32>
    int npages = (PGROUNDUP(oldsz) - PGROUNDUP(newsz)) / PGSIZE;
    uvmunmap(pagetable, PGROUNDUP(newsz), npages, 1);
  }

  return newsz;
}
    8000090e:	8526                	mv	a0,s1
    80000910:	60e2                	ld	ra,24(sp)
    80000912:	6442                	ld	s0,16(sp)
    80000914:	64a2                	ld	s1,8(sp)
    80000916:	6105                	addi	sp,sp,32
    80000918:	8082                	ret
    int npages = (PGROUNDUP(oldsz) - PGROUNDUP(newsz)) / PGSIZE;
    8000091a:	8e1d                	sub	a2,a2,a5
    8000091c:	8231                	srli	a2,a2,0xc
    uvmunmap(pagetable, PGROUNDUP(newsz), npages, 1);
    8000091e:	4685                	li	a3,1
    80000920:	2601                	sext.w	a2,a2
    80000922:	85be                	mv	a1,a5
    80000924:	00000097          	auipc	ra,0x0
    80000928:	e4a080e7          	jalr	-438(ra) # 8000076e <uvmunmap>
    8000092c:	b7cd                	j	8000090e <uvmdealloc+0x26>

000000008000092e <uvmalloc>:
  if(newsz < oldsz)
    8000092e:	0ab66163          	bltu	a2,a1,800009d0 <uvmalloc+0xa2>
{
    80000932:	7139                	addi	sp,sp,-64
    80000934:	fc06                	sd	ra,56(sp)
    80000936:	f822                	sd	s0,48(sp)
    80000938:	f426                	sd	s1,40(sp)
    8000093a:	f04a                	sd	s2,32(sp)
    8000093c:	ec4e                	sd	s3,24(sp)
    8000093e:	e852                	sd	s4,16(sp)
    80000940:	e456                	sd	s5,8(sp)
    80000942:	0080                	addi	s0,sp,64
  oldsz = PGROUNDUP(oldsz);
    80000944:	6a05                	lui	s4,0x1
    80000946:	1a7d                	addi	s4,s4,-1
    80000948:	95d2                	add	a1,a1,s4
    8000094a:	7a7d                	lui	s4,0xfffff
    8000094c:	0145fa33          	and	s4,a1,s4
  for(a = oldsz; a < newsz; a += PGSIZE){
    80000950:	08ca7263          	bleu	a2,s4,800009d4 <uvmalloc+0xa6>
    80000954:	89b2                	mv	s3,a2
    80000956:	8aaa                	mv	s5,a0
    80000958:	8952                	mv	s2,s4
    mem = kalloc();
    8000095a:	fffff097          	auipc	ra,0xfffff
    8000095e:	7c2080e7          	jalr	1986(ra) # 8000011c <kalloc>
    80000962:	84aa                	mv	s1,a0
    if(mem == 0){
    80000964:	c51d                	beqz	a0,80000992 <uvmalloc+0x64>
    memset(mem, 0, PGSIZE);
    80000966:	6605                	lui	a2,0x1
    80000968:	4581                	li	a1,0
    8000096a:	00000097          	auipc	ra,0x0
    8000096e:	812080e7          	jalr	-2030(ra) # 8000017c <memset>
    if(mappages(pagetable, a, PGSIZE, (uint64)mem, PTE_W|PTE_X|PTE_R|PTE_U) != 0){
    80000972:	4779                	li	a4,30
    80000974:	86a6                	mv	a3,s1
    80000976:	6605                	lui	a2,0x1
    80000978:	85ca                	mv	a1,s2
    8000097a:	8556                	mv	a0,s5
    8000097c:	00000097          	auipc	ra,0x0
    80000980:	c10080e7          	jalr	-1008(ra) # 8000058c <mappages>
    80000984:	e905                	bnez	a0,800009b4 <uvmalloc+0x86>
  for(a = oldsz; a < newsz; a += PGSIZE){
    80000986:	6785                	lui	a5,0x1
    80000988:	993e                	add	s2,s2,a5
    8000098a:	fd3968e3          	bltu	s2,s3,8000095a <uvmalloc+0x2c>
  return newsz;
    8000098e:	854e                	mv	a0,s3
    80000990:	a809                	j	800009a2 <uvmalloc+0x74>
      uvmdealloc(pagetable, a, oldsz);
    80000992:	8652                	mv	a2,s4
    80000994:	85ca                	mv	a1,s2
    80000996:	8556                	mv	a0,s5
    80000998:	00000097          	auipc	ra,0x0
    8000099c:	f50080e7          	jalr	-176(ra) # 800008e8 <uvmdealloc>
      return 0;
    800009a0:	4501                	li	a0,0
}
    800009a2:	70e2                	ld	ra,56(sp)
    800009a4:	7442                	ld	s0,48(sp)
    800009a6:	74a2                	ld	s1,40(sp)
    800009a8:	7902                	ld	s2,32(sp)
    800009aa:	69e2                	ld	s3,24(sp)
    800009ac:	6a42                	ld	s4,16(sp)
    800009ae:	6aa2                	ld	s5,8(sp)
    800009b0:	6121                	addi	sp,sp,64
    800009b2:	8082                	ret
      kfree(mem);
    800009b4:	8526                	mv	a0,s1
    800009b6:	fffff097          	auipc	ra,0xfffff
    800009ba:	666080e7          	jalr	1638(ra) # 8000001c <kfree>
      uvmdealloc(pagetable, a, oldsz);
    800009be:	8652                	mv	a2,s4
    800009c0:	85ca                	mv	a1,s2
    800009c2:	8556                	mv	a0,s5
    800009c4:	00000097          	auipc	ra,0x0
    800009c8:	f24080e7          	jalr	-220(ra) # 800008e8 <uvmdealloc>
      return 0;
    800009cc:	4501                	li	a0,0
    800009ce:	bfd1                	j	800009a2 <uvmalloc+0x74>
    return oldsz;
    800009d0:	852e                	mv	a0,a1
}
    800009d2:	8082                	ret
  return newsz;
    800009d4:	8532                	mv	a0,a2
    800009d6:	b7f1                	j	800009a2 <uvmalloc+0x74>

00000000800009d8 <freewalk>:

// Recursively free page-table pages.
// All leaf mappings must already have been removed.
void
freewalk(pagetable_t pagetable)
{
    800009d8:	7179                	addi	sp,sp,-48
    800009da:	f406                	sd	ra,40(sp)
    800009dc:	f022                	sd	s0,32(sp)
    800009de:	ec26                	sd	s1,24(sp)
    800009e0:	e84a                	sd	s2,16(sp)
    800009e2:	e44e                	sd	s3,8(sp)
    800009e4:	e052                	sd	s4,0(sp)
    800009e6:	1800                	addi	s0,sp,48
    800009e8:	8a2a                	mv	s4,a0
  // there are 2^9 = 512 PTEs in a page table.
  for(int i = 0; i < 512; i++){
    800009ea:	84aa                	mv	s1,a0
    800009ec:	6905                	lui	s2,0x1
    800009ee:	992a                	add	s2,s2,a0
    pte_t pte = pagetable[i];
    if((pte & PTE_V) && (pte & (PTE_R|PTE_W|PTE_X)) == 0){
    800009f0:	4985                	li	s3,1
    800009f2:	a821                	j	80000a0a <freewalk+0x32>
      // this PTE points to a lower-level page table.
      uint64 child = PTE2PA(pte);
    800009f4:	8129                	srli	a0,a0,0xa
      freewalk((pagetable_t)child);
    800009f6:	0532                	slli	a0,a0,0xc
    800009f8:	00000097          	auipc	ra,0x0
    800009fc:	fe0080e7          	jalr	-32(ra) # 800009d8 <freewalk>
      pagetable[i] = 0;
    80000a00:	0004b023          	sd	zero,0(s1)
  for(int i = 0; i < 512; i++){
    80000a04:	04a1                	addi	s1,s1,8
    80000a06:	03248163          	beq	s1,s2,80000a28 <freewalk+0x50>
    pte_t pte = pagetable[i];
    80000a0a:	6088                	ld	a0,0(s1)
    if((pte & PTE_V) && (pte & (PTE_R|PTE_W|PTE_X)) == 0){
    80000a0c:	00f57793          	andi	a5,a0,15
    80000a10:	ff3782e3          	beq	a5,s3,800009f4 <freewalk+0x1c>
    } else if(pte & PTE_V){
    80000a14:	8905                	andi	a0,a0,1
    80000a16:	d57d                	beqz	a0,80000a04 <freewalk+0x2c>
      panic("freewalk: leaf");
    80000a18:	00008517          	auipc	a0,0x8
    80000a1c:	6d850513          	addi	a0,a0,1752 # 800090f0 <etext+0xf0>
    80000a20:	00006097          	auipc	ra,0x6
    80000a24:	36e080e7          	jalr	878(ra) # 80006d8e <panic>
    }
  }
  kfree((void*)pagetable);
    80000a28:	8552                	mv	a0,s4
    80000a2a:	fffff097          	auipc	ra,0xfffff
    80000a2e:	5f2080e7          	jalr	1522(ra) # 8000001c <kfree>
}
    80000a32:	70a2                	ld	ra,40(sp)
    80000a34:	7402                	ld	s0,32(sp)
    80000a36:	64e2                	ld	s1,24(sp)
    80000a38:	6942                	ld	s2,16(sp)
    80000a3a:	69a2                	ld	s3,8(sp)
    80000a3c:	6a02                	ld	s4,0(sp)
    80000a3e:	6145                	addi	sp,sp,48
    80000a40:	8082                	ret

0000000080000a42 <uvmfree>:

// Free user memory pages,
// then free page-table pages.
void
uvmfree(pagetable_t pagetable, uint64 sz)
{
    80000a42:	1101                	addi	sp,sp,-32
    80000a44:	ec06                	sd	ra,24(sp)
    80000a46:	e822                	sd	s0,16(sp)
    80000a48:	e426                	sd	s1,8(sp)
    80000a4a:	1000                	addi	s0,sp,32
    80000a4c:	84aa                	mv	s1,a0
  if(sz > 0)
    80000a4e:	e999                	bnez	a1,80000a64 <uvmfree+0x22>
    uvmunmap(pagetable, 0, PGROUNDUP(sz)/PGSIZE, 1);
  freewalk(pagetable);
    80000a50:	8526                	mv	a0,s1
    80000a52:	00000097          	auipc	ra,0x0
    80000a56:	f86080e7          	jalr	-122(ra) # 800009d8 <freewalk>
}
    80000a5a:	60e2                	ld	ra,24(sp)
    80000a5c:	6442                	ld	s0,16(sp)
    80000a5e:	64a2                	ld	s1,8(sp)
    80000a60:	6105                	addi	sp,sp,32
    80000a62:	8082                	ret
    uvmunmap(pagetable, 0, PGROUNDUP(sz)/PGSIZE, 1);
    80000a64:	6605                	lui	a2,0x1
    80000a66:	167d                	addi	a2,a2,-1
    80000a68:	962e                	add	a2,a2,a1
    80000a6a:	4685                	li	a3,1
    80000a6c:	8231                	srli	a2,a2,0xc
    80000a6e:	4581                	li	a1,0
    80000a70:	00000097          	auipc	ra,0x0
    80000a74:	cfe080e7          	jalr	-770(ra) # 8000076e <uvmunmap>
    80000a78:	bfe1                	j	80000a50 <uvmfree+0xe>

0000000080000a7a <uvmcopy>:
  pte_t *pte;
  uint64 pa, i;
  uint flags;
  char *mem;

  for(i = 0; i < sz; i += PGSIZE){
    80000a7a:	c679                	beqz	a2,80000b48 <uvmcopy+0xce>
{
    80000a7c:	715d                	addi	sp,sp,-80
    80000a7e:	e486                	sd	ra,72(sp)
    80000a80:	e0a2                	sd	s0,64(sp)
    80000a82:	fc26                	sd	s1,56(sp)
    80000a84:	f84a                	sd	s2,48(sp)
    80000a86:	f44e                	sd	s3,40(sp)
    80000a88:	f052                	sd	s4,32(sp)
    80000a8a:	ec56                	sd	s5,24(sp)
    80000a8c:	e85a                	sd	s6,16(sp)
    80000a8e:	e45e                	sd	s7,8(sp)
    80000a90:	0880                	addi	s0,sp,80
    80000a92:	8ab2                	mv	s5,a2
    80000a94:	8b2e                	mv	s6,a1
    80000a96:	8baa                	mv	s7,a0
  for(i = 0; i < sz; i += PGSIZE){
    80000a98:	4901                	li	s2,0
    if((pte = walk(old, i, 0)) == 0)
    80000a9a:	4601                	li	a2,0
    80000a9c:	85ca                	mv	a1,s2
    80000a9e:	855e                	mv	a0,s7
    80000aa0:	00000097          	auipc	ra,0x0
    80000aa4:	a04080e7          	jalr	-1532(ra) # 800004a4 <walk>
    80000aa8:	c531                	beqz	a0,80000af4 <uvmcopy+0x7a>
      panic("uvmcopy: pte should exist");
    if((*pte & PTE_V) == 0)
    80000aaa:	6118                	ld	a4,0(a0)
    80000aac:	00177793          	andi	a5,a4,1
    80000ab0:	cbb1                	beqz	a5,80000b04 <uvmcopy+0x8a>
      panic("uvmcopy: page not present");
    pa = PTE2PA(*pte);
    80000ab2:	00a75593          	srli	a1,a4,0xa
    80000ab6:	00c59993          	slli	s3,a1,0xc
    flags = PTE_FLAGS(*pte);
    80000aba:	3ff77493          	andi	s1,a4,1023
    if((mem = kalloc()) == 0)
    80000abe:	fffff097          	auipc	ra,0xfffff
    80000ac2:	65e080e7          	jalr	1630(ra) # 8000011c <kalloc>
    80000ac6:	8a2a                	mv	s4,a0
    80000ac8:	c939                	beqz	a0,80000b1e <uvmcopy+0xa4>
      goto err;
    memmove(mem, (char*)pa, PGSIZE);
    80000aca:	6605                	lui	a2,0x1
    80000acc:	85ce                	mv	a1,s3
    80000ace:	fffff097          	auipc	ra,0xfffff
    80000ad2:	71a080e7          	jalr	1818(ra) # 800001e8 <memmove>
    if(mappages(new, i, PGSIZE, (uint64)mem, flags) != 0){
    80000ad6:	8726                	mv	a4,s1
    80000ad8:	86d2                	mv	a3,s4
    80000ada:	6605                	lui	a2,0x1
    80000adc:	85ca                	mv	a1,s2
    80000ade:	855a                	mv	a0,s6
    80000ae0:	00000097          	auipc	ra,0x0
    80000ae4:	aac080e7          	jalr	-1364(ra) # 8000058c <mappages>
    80000ae8:	e515                	bnez	a0,80000b14 <uvmcopy+0x9a>
  for(i = 0; i < sz; i += PGSIZE){
    80000aea:	6785                	lui	a5,0x1
    80000aec:	993e                	add	s2,s2,a5
    80000aee:	fb5966e3          	bltu	s2,s5,80000a9a <uvmcopy+0x20>
    80000af2:	a081                	j	80000b32 <uvmcopy+0xb8>
      panic("uvmcopy: pte should exist");
    80000af4:	00008517          	auipc	a0,0x8
    80000af8:	60c50513          	addi	a0,a0,1548 # 80009100 <etext+0x100>
    80000afc:	00006097          	auipc	ra,0x6
    80000b00:	292080e7          	jalr	658(ra) # 80006d8e <panic>
      panic("uvmcopy: page not present");
    80000b04:	00008517          	auipc	a0,0x8
    80000b08:	61c50513          	addi	a0,a0,1564 # 80009120 <etext+0x120>
    80000b0c:	00006097          	auipc	ra,0x6
    80000b10:	282080e7          	jalr	642(ra) # 80006d8e <panic>
      kfree(mem);
    80000b14:	8552                	mv	a0,s4
    80000b16:	fffff097          	auipc	ra,0xfffff
    80000b1a:	506080e7          	jalr	1286(ra) # 8000001c <kfree>
    }
  }
  return 0;

 err:
  uvmunmap(new, 0, i / PGSIZE, 1);
    80000b1e:	4685                	li	a3,1
    80000b20:	00c95613          	srli	a2,s2,0xc
    80000b24:	4581                	li	a1,0
    80000b26:	855a                	mv	a0,s6
    80000b28:	00000097          	auipc	ra,0x0
    80000b2c:	c46080e7          	jalr	-954(ra) # 8000076e <uvmunmap>
  return -1;
    80000b30:	557d                	li	a0,-1
}
    80000b32:	60a6                	ld	ra,72(sp)
    80000b34:	6406                	ld	s0,64(sp)
    80000b36:	74e2                	ld	s1,56(sp)
    80000b38:	7942                	ld	s2,48(sp)
    80000b3a:	79a2                	ld	s3,40(sp)
    80000b3c:	7a02                	ld	s4,32(sp)
    80000b3e:	6ae2                	ld	s5,24(sp)
    80000b40:	6b42                	ld	s6,16(sp)
    80000b42:	6ba2                	ld	s7,8(sp)
    80000b44:	6161                	addi	sp,sp,80
    80000b46:	8082                	ret
  return 0;
    80000b48:	4501                	li	a0,0
}
    80000b4a:	8082                	ret

0000000080000b4c <uvmclear>:

// mark a PTE invalid for user access.
// used by exec for the user stack guard page.
void
uvmclear(pagetable_t pagetable, uint64 va)
{
    80000b4c:	1141                	addi	sp,sp,-16
    80000b4e:	e406                	sd	ra,8(sp)
    80000b50:	e022                	sd	s0,0(sp)
    80000b52:	0800                	addi	s0,sp,16
  pte_t *pte;
  
  pte = walk(pagetable, va, 0);
    80000b54:	4601                	li	a2,0
    80000b56:	00000097          	auipc	ra,0x0
    80000b5a:	94e080e7          	jalr	-1714(ra) # 800004a4 <walk>
  if(pte == 0)
    80000b5e:	c901                	beqz	a0,80000b6e <uvmclear+0x22>
    panic("uvmclear");
  *pte &= ~PTE_U;
    80000b60:	611c                	ld	a5,0(a0)
    80000b62:	9bbd                	andi	a5,a5,-17
    80000b64:	e11c                	sd	a5,0(a0)
}
    80000b66:	60a2                	ld	ra,8(sp)
    80000b68:	6402                	ld	s0,0(sp)
    80000b6a:	0141                	addi	sp,sp,16
    80000b6c:	8082                	ret
    panic("uvmclear");
    80000b6e:	00008517          	auipc	a0,0x8
    80000b72:	5d250513          	addi	a0,a0,1490 # 80009140 <etext+0x140>
    80000b76:	00006097          	auipc	ra,0x6
    80000b7a:	218080e7          	jalr	536(ra) # 80006d8e <panic>

0000000080000b7e <copyout>:
int
copyout(pagetable_t pagetable, uint64 dstva, char *src, uint64 len)
{
  uint64 n, va0, pa0;

  while(len > 0){
    80000b7e:	c6bd                	beqz	a3,80000bec <copyout+0x6e>
{
    80000b80:	715d                	addi	sp,sp,-80
    80000b82:	e486                	sd	ra,72(sp)
    80000b84:	e0a2                	sd	s0,64(sp)
    80000b86:	fc26                	sd	s1,56(sp)
    80000b88:	f84a                	sd	s2,48(sp)
    80000b8a:	f44e                	sd	s3,40(sp)
    80000b8c:	f052                	sd	s4,32(sp)
    80000b8e:	ec56                	sd	s5,24(sp)
    80000b90:	e85a                	sd	s6,16(sp)
    80000b92:	e45e                	sd	s7,8(sp)
    80000b94:	e062                	sd	s8,0(sp)
    80000b96:	0880                	addi	s0,sp,80
    80000b98:	8baa                	mv	s7,a0
    80000b9a:	8a2e                	mv	s4,a1
    80000b9c:	8ab2                	mv	s5,a2
    80000b9e:	89b6                	mv	s3,a3
    va0 = PGROUNDDOWN(dstva);
    80000ba0:	7c7d                	lui	s8,0xfffff
    pa0 = walkaddr(pagetable, va0);
    if(pa0 == 0)
      return -1;
    n = PGSIZE - (dstva - va0);
    80000ba2:	6b05                	lui	s6,0x1
    80000ba4:	a015                	j	80000bc8 <copyout+0x4a>
    if(n > len)
      n = len;
    memmove((void *)(pa0 + (dstva - va0)), src, n);
    80000ba6:	9552                	add	a0,a0,s4
    80000ba8:	0004861b          	sext.w	a2,s1
    80000bac:	85d6                	mv	a1,s5
    80000bae:	41250533          	sub	a0,a0,s2
    80000bb2:	fffff097          	auipc	ra,0xfffff
    80000bb6:	636080e7          	jalr	1590(ra) # 800001e8 <memmove>

    len -= n;
    80000bba:	409989b3          	sub	s3,s3,s1
    src += n;
    80000bbe:	9aa6                	add	s5,s5,s1
    dstva = va0 + PGSIZE;
    80000bc0:	01690a33          	add	s4,s2,s6
  while(len > 0){
    80000bc4:	02098263          	beqz	s3,80000be8 <copyout+0x6a>
    va0 = PGROUNDDOWN(dstva);
    80000bc8:	018a7933          	and	s2,s4,s8
    pa0 = walkaddr(pagetable, va0);
    80000bcc:	85ca                	mv	a1,s2
    80000bce:	855e                	mv	a0,s7
    80000bd0:	00000097          	auipc	ra,0x0
    80000bd4:	97a080e7          	jalr	-1670(ra) # 8000054a <walkaddr>
    if(pa0 == 0)
    80000bd8:	cd01                	beqz	a0,80000bf0 <copyout+0x72>
    n = PGSIZE - (dstva - va0);
    80000bda:	414904b3          	sub	s1,s2,s4
    80000bde:	94da                	add	s1,s1,s6
    if(n > len)
    80000be0:	fc99f3e3          	bleu	s1,s3,80000ba6 <copyout+0x28>
    80000be4:	84ce                	mv	s1,s3
    80000be6:	b7c1                	j	80000ba6 <copyout+0x28>
  }
  return 0;
    80000be8:	4501                	li	a0,0
    80000bea:	a021                	j	80000bf2 <copyout+0x74>
    80000bec:	4501                	li	a0,0
}
    80000bee:	8082                	ret
      return -1;
    80000bf0:	557d                	li	a0,-1
}
    80000bf2:	60a6                	ld	ra,72(sp)
    80000bf4:	6406                	ld	s0,64(sp)
    80000bf6:	74e2                	ld	s1,56(sp)
    80000bf8:	7942                	ld	s2,48(sp)
    80000bfa:	79a2                	ld	s3,40(sp)
    80000bfc:	7a02                	ld	s4,32(sp)
    80000bfe:	6ae2                	ld	s5,24(sp)
    80000c00:	6b42                	ld	s6,16(sp)
    80000c02:	6ba2                	ld	s7,8(sp)
    80000c04:	6c02                	ld	s8,0(sp)
    80000c06:	6161                	addi	sp,sp,80
    80000c08:	8082                	ret

0000000080000c0a <copyin>:
int
copyin(pagetable_t pagetable, char *dst, uint64 srcva, uint64 len)
{
  uint64 n, va0, pa0;
  
  while(len > 0){
    80000c0a:	caa5                	beqz	a3,80000c7a <copyin+0x70>
{
    80000c0c:	715d                	addi	sp,sp,-80
    80000c0e:	e486                	sd	ra,72(sp)
    80000c10:	e0a2                	sd	s0,64(sp)
    80000c12:	fc26                	sd	s1,56(sp)
    80000c14:	f84a                	sd	s2,48(sp)
    80000c16:	f44e                	sd	s3,40(sp)
    80000c18:	f052                	sd	s4,32(sp)
    80000c1a:	ec56                	sd	s5,24(sp)
    80000c1c:	e85a                	sd	s6,16(sp)
    80000c1e:	e45e                	sd	s7,8(sp)
    80000c20:	e062                	sd	s8,0(sp)
    80000c22:	0880                	addi	s0,sp,80
    80000c24:	8baa                	mv	s7,a0
    80000c26:	8aae                	mv	s5,a1
    80000c28:	8a32                	mv	s4,a2
    80000c2a:	89b6                	mv	s3,a3
    va0 = PGROUNDDOWN(srcva);
    80000c2c:	7c7d                	lui	s8,0xfffff
    pa0 = walkaddr(pagetable, va0);
    if(pa0 == 0)
      return -1;
    n = PGSIZE - (srcva - va0);
    80000c2e:	6b05                	lui	s6,0x1
    80000c30:	a01d                	j	80000c56 <copyin+0x4c>
    if(n > len)
      n = len;
    memmove(dst, (void *)(pa0 + (srcva - va0)), n);
    80000c32:	014505b3          	add	a1,a0,s4
    80000c36:	0004861b          	sext.w	a2,s1
    80000c3a:	412585b3          	sub	a1,a1,s2
    80000c3e:	8556                	mv	a0,s5
    80000c40:	fffff097          	auipc	ra,0xfffff
    80000c44:	5a8080e7          	jalr	1448(ra) # 800001e8 <memmove>

    len -= n;
    80000c48:	409989b3          	sub	s3,s3,s1
    dst += n;
    80000c4c:	9aa6                	add	s5,s5,s1
    srcva = va0 + PGSIZE;
    80000c4e:	01690a33          	add	s4,s2,s6
  while(len > 0){
    80000c52:	02098263          	beqz	s3,80000c76 <copyin+0x6c>
    va0 = PGROUNDDOWN(srcva);
    80000c56:	018a7933          	and	s2,s4,s8
    pa0 = walkaddr(pagetable, va0);
    80000c5a:	85ca                	mv	a1,s2
    80000c5c:	855e                	mv	a0,s7
    80000c5e:	00000097          	auipc	ra,0x0
    80000c62:	8ec080e7          	jalr	-1812(ra) # 8000054a <walkaddr>
    if(pa0 == 0)
    80000c66:	cd01                	beqz	a0,80000c7e <copyin+0x74>
    n = PGSIZE - (srcva - va0);
    80000c68:	414904b3          	sub	s1,s2,s4
    80000c6c:	94da                	add	s1,s1,s6
    if(n > len)
    80000c6e:	fc99f2e3          	bleu	s1,s3,80000c32 <copyin+0x28>
    80000c72:	84ce                	mv	s1,s3
    80000c74:	bf7d                	j	80000c32 <copyin+0x28>
  }
  return 0;
    80000c76:	4501                	li	a0,0
    80000c78:	a021                	j	80000c80 <copyin+0x76>
    80000c7a:	4501                	li	a0,0
}
    80000c7c:	8082                	ret
      return -1;
    80000c7e:	557d                	li	a0,-1
}
    80000c80:	60a6                	ld	ra,72(sp)
    80000c82:	6406                	ld	s0,64(sp)
    80000c84:	74e2                	ld	s1,56(sp)
    80000c86:	7942                	ld	s2,48(sp)
    80000c88:	79a2                	ld	s3,40(sp)
    80000c8a:	7a02                	ld	s4,32(sp)
    80000c8c:	6ae2                	ld	s5,24(sp)
    80000c8e:	6b42                	ld	s6,16(sp)
    80000c90:	6ba2                	ld	s7,8(sp)
    80000c92:	6c02                	ld	s8,0(sp)
    80000c94:	6161                	addi	sp,sp,80
    80000c96:	8082                	ret

0000000080000c98 <copyinstr>:
copyinstr(pagetable_t pagetable, char *dst, uint64 srcva, uint64 max)
{
  uint64 n, va0, pa0;
  int got_null = 0;

  while(got_null == 0 && max > 0){
    80000c98:	ced5                	beqz	a3,80000d54 <copyinstr+0xbc>
{
    80000c9a:	715d                	addi	sp,sp,-80
    80000c9c:	e486                	sd	ra,72(sp)
    80000c9e:	e0a2                	sd	s0,64(sp)
    80000ca0:	fc26                	sd	s1,56(sp)
    80000ca2:	f84a                	sd	s2,48(sp)
    80000ca4:	f44e                	sd	s3,40(sp)
    80000ca6:	f052                	sd	s4,32(sp)
    80000ca8:	ec56                	sd	s5,24(sp)
    80000caa:	e85a                	sd	s6,16(sp)
    80000cac:	e45e                	sd	s7,8(sp)
    80000cae:	e062                	sd	s8,0(sp)
    80000cb0:	0880                	addi	s0,sp,80
    80000cb2:	8aaa                	mv	s5,a0
    80000cb4:	84ae                	mv	s1,a1
    80000cb6:	8c32                	mv	s8,a2
    80000cb8:	8bb6                	mv	s7,a3
    va0 = PGROUNDDOWN(srcva);
    80000cba:	7a7d                	lui	s4,0xfffff
    pa0 = walkaddr(pagetable, va0);
    if(pa0 == 0)
      return -1;
    n = PGSIZE - (srcva - va0);
    80000cbc:	6985                	lui	s3,0x1
    80000cbe:	4b05                	li	s6,1
    80000cc0:	a801                	j	80000cd0 <copyinstr+0x38>
    if(n > max)
      n = max;

    char *p = (char *) (pa0 + (srcva - va0));
    while(n > 0){
      if(*p == '\0'){
    80000cc2:	87a6                	mv	a5,s1
    80000cc4:	a085                	j	80000d24 <copyinstr+0x8c>
        *dst = *p;
      }
      --n;
      --max;
      p++;
      dst++;
    80000cc6:	84b2                	mv	s1,a2
    }

    srcva = va0 + PGSIZE;
    80000cc8:	01390c33          	add	s8,s2,s3
  while(got_null == 0 && max > 0){
    80000ccc:	080b8063          	beqz	s7,80000d4c <copyinstr+0xb4>
    va0 = PGROUNDDOWN(srcva);
    80000cd0:	014c7933          	and	s2,s8,s4
    pa0 = walkaddr(pagetable, va0);
    80000cd4:	85ca                	mv	a1,s2
    80000cd6:	8556                	mv	a0,s5
    80000cd8:	00000097          	auipc	ra,0x0
    80000cdc:	872080e7          	jalr	-1934(ra) # 8000054a <walkaddr>
    if(pa0 == 0)
    80000ce0:	c925                	beqz	a0,80000d50 <copyinstr+0xb8>
    n = PGSIZE - (srcva - va0);
    80000ce2:	41890633          	sub	a2,s2,s8
    80000ce6:	964e                	add	a2,a2,s3
    if(n > max)
    80000ce8:	00cbf363          	bleu	a2,s7,80000cee <copyinstr+0x56>
    80000cec:	865e                	mv	a2,s7
    char *p = (char *) (pa0 + (srcva - va0));
    80000cee:	9562                	add	a0,a0,s8
    80000cf0:	41250533          	sub	a0,a0,s2
    while(n > 0){
    80000cf4:	da71                	beqz	a2,80000cc8 <copyinstr+0x30>
      if(*p == '\0'){
    80000cf6:	00054703          	lbu	a4,0(a0)
    80000cfa:	d761                	beqz	a4,80000cc2 <copyinstr+0x2a>
    80000cfc:	9626                	add	a2,a2,s1
    80000cfe:	87a6                	mv	a5,s1
    80000d00:	1bfd                	addi	s7,s7,-1
    80000d02:	009b86b3          	add	a3,s7,s1
    80000d06:	409b04b3          	sub	s1,s6,s1
    80000d0a:	94aa                	add	s1,s1,a0
        *dst = *p;
    80000d0c:	00e78023          	sb	a4,0(a5) # 1000 <_entry-0x7ffff000>
      --max;
    80000d10:	40f68bb3          	sub	s7,a3,a5
      p++;
    80000d14:	00f48733          	add	a4,s1,a5
      dst++;
    80000d18:	0785                	addi	a5,a5,1
    while(n > 0){
    80000d1a:	faf606e3          	beq	a2,a5,80000cc6 <copyinstr+0x2e>
      if(*p == '\0'){
    80000d1e:	00074703          	lbu	a4,0(a4) # fffffffffffff000 <end+0xffffffff7ffd7a80>
    80000d22:	f76d                	bnez	a4,80000d0c <copyinstr+0x74>
        *dst = '\0';
    80000d24:	00078023          	sb	zero,0(a5)
    80000d28:	4785                	li	a5,1
  }
  if(got_null){
    80000d2a:	0017b513          	seqz	a0,a5
    80000d2e:	40a0053b          	negw	a0,a0
    80000d32:	2501                	sext.w	a0,a0
    return 0;
  } else {
    return -1;
  }
}
    80000d34:	60a6                	ld	ra,72(sp)
    80000d36:	6406                	ld	s0,64(sp)
    80000d38:	74e2                	ld	s1,56(sp)
    80000d3a:	7942                	ld	s2,48(sp)
    80000d3c:	79a2                	ld	s3,40(sp)
    80000d3e:	7a02                	ld	s4,32(sp)
    80000d40:	6ae2                	ld	s5,24(sp)
    80000d42:	6b42                	ld	s6,16(sp)
    80000d44:	6ba2                	ld	s7,8(sp)
    80000d46:	6c02                	ld	s8,0(sp)
    80000d48:	6161                	addi	sp,sp,80
    80000d4a:	8082                	ret
    80000d4c:	4781                	li	a5,0
    80000d4e:	bff1                	j	80000d2a <copyinstr+0x92>
      return -1;
    80000d50:	557d                	li	a0,-1
    80000d52:	b7cd                	j	80000d34 <copyinstr+0x9c>
  int got_null = 0;
    80000d54:	4781                	li	a5,0
  if(got_null){
    80000d56:	0017b513          	seqz	a0,a5
    80000d5a:	40a0053b          	negw	a0,a0
    80000d5e:	2501                	sext.w	a0,a0
}
    80000d60:	8082                	ret

0000000080000d62 <wakeup1>:

// Wake up p if it is sleeping in wait(); used by exit().
// Caller must hold p->lock.
static void
wakeup1(struct proc *p)
{
    80000d62:	1101                	addi	sp,sp,-32
    80000d64:	ec06                	sd	ra,24(sp)
    80000d66:	e822                	sd	s0,16(sp)
    80000d68:	e426                	sd	s1,8(sp)
    80000d6a:	1000                	addi	s0,sp,32
    80000d6c:	84aa                	mv	s1,a0
  if(!holding(&p->lock))
    80000d6e:	00006097          	auipc	ra,0x6
    80000d72:	512080e7          	jalr	1298(ra) # 80007280 <holding>
    80000d76:	c909                	beqz	a0,80000d88 <wakeup1+0x26>
    panic("wakeup1");
  if(p->chan == p && p->state == SLEEPING) {
    80000d78:	749c                	ld	a5,40(s1)
    80000d7a:	00978f63          	beq	a5,s1,80000d98 <wakeup1+0x36>
    p->state = RUNNABLE;
  }
}
    80000d7e:	60e2                	ld	ra,24(sp)
    80000d80:	6442                	ld	s0,16(sp)
    80000d82:	64a2                	ld	s1,8(sp)
    80000d84:	6105                	addi	sp,sp,32
    80000d86:	8082                	ret
    panic("wakeup1");
    80000d88:	00008517          	auipc	a0,0x8
    80000d8c:	3f050513          	addi	a0,a0,1008 # 80009178 <states.1780+0x28>
    80000d90:	00006097          	auipc	ra,0x6
    80000d94:	ffe080e7          	jalr	-2(ra) # 80006d8e <panic>
  if(p->chan == p && p->state == SLEEPING) {
    80000d98:	4c98                	lw	a4,24(s1)
    80000d9a:	4785                	li	a5,1
    80000d9c:	fef711e3          	bne	a4,a5,80000d7e <wakeup1+0x1c>
    p->state = RUNNABLE;
    80000da0:	4789                	li	a5,2
    80000da2:	cc9c                	sw	a5,24(s1)
}
    80000da4:	bfe9                	j	80000d7e <wakeup1+0x1c>

0000000080000da6 <proc_mapstacks>:
proc_mapstacks(pagetable_t kpgtbl) {
    80000da6:	7139                	addi	sp,sp,-64
    80000da8:	fc06                	sd	ra,56(sp)
    80000daa:	f822                	sd	s0,48(sp)
    80000dac:	f426                	sd	s1,40(sp)
    80000dae:	f04a                	sd	s2,32(sp)
    80000db0:	ec4e                	sd	s3,24(sp)
    80000db2:	e852                	sd	s4,16(sp)
    80000db4:	e456                	sd	s5,8(sp)
    80000db6:	e05a                	sd	s6,0(sp)
    80000db8:	0080                	addi	s0,sp,64
    80000dba:	8b2a                	mv	s6,a0
  for(p = proc; p < &proc[NPROC]; p++) {
    80000dbc:	00009497          	auipc	s1,0x9
    80000dc0:	6cc48493          	addi	s1,s1,1740 # 8000a488 <proc>
    uint64 va = KSTACK((int) (p - proc));
    80000dc4:	8aa6                	mv	s5,s1
    80000dc6:	00008a17          	auipc	s4,0x8
    80000dca:	23aa0a13          	addi	s4,s4,570 # 80009000 <etext>
    80000dce:	04000937          	lui	s2,0x4000
    80000dd2:	197d                	addi	s2,s2,-1
    80000dd4:	0932                	slli	s2,s2,0xc
  for(p = proc; p < &proc[NPROC]; p++) {
    80000dd6:	0000f997          	auipc	s3,0xf
    80000dda:	0b298993          	addi	s3,s3,178 # 8000fe88 <tickslock>
    char *pa = kalloc();
    80000dde:	fffff097          	auipc	ra,0xfffff
    80000de2:	33e080e7          	jalr	830(ra) # 8000011c <kalloc>
    80000de6:	862a                	mv	a2,a0
    if(pa == 0)
    80000de8:	c131                	beqz	a0,80000e2c <proc_mapstacks+0x86>
    uint64 va = KSTACK((int) (p - proc));
    80000dea:	415485b3          	sub	a1,s1,s5
    80000dee:	858d                	srai	a1,a1,0x3
    80000df0:	000a3783          	ld	a5,0(s4)
    80000df4:	02f585b3          	mul	a1,a1,a5
    80000df8:	2585                	addiw	a1,a1,1
    80000dfa:	00d5959b          	slliw	a1,a1,0xd
    kvmmap(kpgtbl, va, (uint64)pa, PGSIZE, PTE_R | PTE_W);
    80000dfe:	4719                	li	a4,6
    80000e00:	6685                	lui	a3,0x1
    80000e02:	40b905b3          	sub	a1,s2,a1
    80000e06:	855a                	mv	a0,s6
    80000e08:	00000097          	auipc	ra,0x0
    80000e0c:	810080e7          	jalr	-2032(ra) # 80000618 <kvmmap>
  for(p = proc; p < &proc[NPROC]; p++) {
    80000e10:	16848493          	addi	s1,s1,360
    80000e14:	fd3495e3          	bne	s1,s3,80000dde <proc_mapstacks+0x38>
}
    80000e18:	70e2                	ld	ra,56(sp)
    80000e1a:	7442                	ld	s0,48(sp)
    80000e1c:	74a2                	ld	s1,40(sp)
    80000e1e:	7902                	ld	s2,32(sp)
    80000e20:	69e2                	ld	s3,24(sp)
    80000e22:	6a42                	ld	s4,16(sp)
    80000e24:	6aa2                	ld	s5,8(sp)
    80000e26:	6b02                	ld	s6,0(sp)
    80000e28:	6121                	addi	sp,sp,64
    80000e2a:	8082                	ret
      panic("kalloc");
    80000e2c:	00008517          	auipc	a0,0x8
    80000e30:	35450513          	addi	a0,a0,852 # 80009180 <states.1780+0x30>
    80000e34:	00006097          	auipc	ra,0x6
    80000e38:	f5a080e7          	jalr	-166(ra) # 80006d8e <panic>

0000000080000e3c <procinit>:
{
    80000e3c:	7139                	addi	sp,sp,-64
    80000e3e:	fc06                	sd	ra,56(sp)
    80000e40:	f822                	sd	s0,48(sp)
    80000e42:	f426                	sd	s1,40(sp)
    80000e44:	f04a                	sd	s2,32(sp)
    80000e46:	ec4e                	sd	s3,24(sp)
    80000e48:	e852                	sd	s4,16(sp)
    80000e4a:	e456                	sd	s5,8(sp)
    80000e4c:	e05a                	sd	s6,0(sp)
    80000e4e:	0080                	addi	s0,sp,64
  initlock(&pid_lock, "nextpid");
    80000e50:	00008597          	auipc	a1,0x8
    80000e54:	33858593          	addi	a1,a1,824 # 80009188 <states.1780+0x38>
    80000e58:	00009517          	auipc	a0,0x9
    80000e5c:	21850513          	addi	a0,a0,536 # 8000a070 <pid_lock>
    80000e60:	00006097          	auipc	ra,0x6
    80000e64:	40a080e7          	jalr	1034(ra) # 8000726a <initlock>
  for(p = proc; p < &proc[NPROC]; p++) {
    80000e68:	00009497          	auipc	s1,0x9
    80000e6c:	62048493          	addi	s1,s1,1568 # 8000a488 <proc>
      initlock(&p->lock, "proc");
    80000e70:	00008b17          	auipc	s6,0x8
    80000e74:	320b0b13          	addi	s6,s6,800 # 80009190 <states.1780+0x40>
      p->kstack = KSTACK((int) (p - proc));
    80000e78:	8aa6                	mv	s5,s1
    80000e7a:	00008a17          	auipc	s4,0x8
    80000e7e:	186a0a13          	addi	s4,s4,390 # 80009000 <etext>
    80000e82:	04000937          	lui	s2,0x4000
    80000e86:	197d                	addi	s2,s2,-1
    80000e88:	0932                	slli	s2,s2,0xc
  for(p = proc; p < &proc[NPROC]; p++) {
    80000e8a:	0000f997          	auipc	s3,0xf
    80000e8e:	ffe98993          	addi	s3,s3,-2 # 8000fe88 <tickslock>
      initlock(&p->lock, "proc");
    80000e92:	85da                	mv	a1,s6
    80000e94:	8526                	mv	a0,s1
    80000e96:	00006097          	auipc	ra,0x6
    80000e9a:	3d4080e7          	jalr	980(ra) # 8000726a <initlock>
      p->kstack = KSTACK((int) (p - proc));
    80000e9e:	415487b3          	sub	a5,s1,s5
    80000ea2:	878d                	srai	a5,a5,0x3
    80000ea4:	000a3703          	ld	a4,0(s4)
    80000ea8:	02e787b3          	mul	a5,a5,a4
    80000eac:	2785                	addiw	a5,a5,1
    80000eae:	00d7979b          	slliw	a5,a5,0xd
    80000eb2:	40f907b3          	sub	a5,s2,a5
    80000eb6:	e0bc                	sd	a5,64(s1)
  for(p = proc; p < &proc[NPROC]; p++) {
    80000eb8:	16848493          	addi	s1,s1,360
    80000ebc:	fd349be3          	bne	s1,s3,80000e92 <procinit+0x56>
}
    80000ec0:	70e2                	ld	ra,56(sp)
    80000ec2:	7442                	ld	s0,48(sp)
    80000ec4:	74a2                	ld	s1,40(sp)
    80000ec6:	7902                	ld	s2,32(sp)
    80000ec8:	69e2                	ld	s3,24(sp)
    80000eca:	6a42                	ld	s4,16(sp)
    80000ecc:	6aa2                	ld	s5,8(sp)
    80000ece:	6b02                	ld	s6,0(sp)
    80000ed0:	6121                	addi	sp,sp,64
    80000ed2:	8082                	ret

0000000080000ed4 <cpuid>:
{
    80000ed4:	1141                	addi	sp,sp,-16
    80000ed6:	e422                	sd	s0,8(sp)
    80000ed8:	0800                	addi	s0,sp,16
  asm volatile("mv %0, tp" : "=r" (x) );
    80000eda:	8512                	mv	a0,tp
}
    80000edc:	2501                	sext.w	a0,a0
    80000ede:	6422                	ld	s0,8(sp)
    80000ee0:	0141                	addi	sp,sp,16
    80000ee2:	8082                	ret

0000000080000ee4 <mycpu>:
mycpu(void) {
    80000ee4:	1141                	addi	sp,sp,-16
    80000ee6:	e422                	sd	s0,8(sp)
    80000ee8:	0800                	addi	s0,sp,16
    80000eea:	8792                	mv	a5,tp
  struct cpu *c = &cpus[id];
    80000eec:	2781                	sext.w	a5,a5
    80000eee:	079e                	slli	a5,a5,0x7
}
    80000ef0:	00009517          	auipc	a0,0x9
    80000ef4:	19850513          	addi	a0,a0,408 # 8000a088 <cpus>
    80000ef8:	953e                	add	a0,a0,a5
    80000efa:	6422                	ld	s0,8(sp)
    80000efc:	0141                	addi	sp,sp,16
    80000efe:	8082                	ret

0000000080000f00 <myproc>:
myproc(void) {
    80000f00:	1101                	addi	sp,sp,-32
    80000f02:	ec06                	sd	ra,24(sp)
    80000f04:	e822                	sd	s0,16(sp)
    80000f06:	e426                	sd	s1,8(sp)
    80000f08:	1000                	addi	s0,sp,32
  push_off();
    80000f0a:	00006097          	auipc	ra,0x6
    80000f0e:	3a4080e7          	jalr	932(ra) # 800072ae <push_off>
    80000f12:	8792                	mv	a5,tp
  struct proc *p = c->proc;
    80000f14:	2781                	sext.w	a5,a5
    80000f16:	079e                	slli	a5,a5,0x7
    80000f18:	00009717          	auipc	a4,0x9
    80000f1c:	15870713          	addi	a4,a4,344 # 8000a070 <pid_lock>
    80000f20:	97ba                	add	a5,a5,a4
    80000f22:	6f84                	ld	s1,24(a5)
  pop_off();
    80000f24:	00006097          	auipc	ra,0x6
    80000f28:	42a080e7          	jalr	1066(ra) # 8000734e <pop_off>
}
    80000f2c:	8526                	mv	a0,s1
    80000f2e:	60e2                	ld	ra,24(sp)
    80000f30:	6442                	ld	s0,16(sp)
    80000f32:	64a2                	ld	s1,8(sp)
    80000f34:	6105                	addi	sp,sp,32
    80000f36:	8082                	ret

0000000080000f38 <forkret>:
{
    80000f38:	1141                	addi	sp,sp,-16
    80000f3a:	e406                	sd	ra,8(sp)
    80000f3c:	e022                	sd	s0,0(sp)
    80000f3e:	0800                	addi	s0,sp,16
  release(&myproc()->lock);
    80000f40:	00000097          	auipc	ra,0x0
    80000f44:	fc0080e7          	jalr	-64(ra) # 80000f00 <myproc>
    80000f48:	00006097          	auipc	ra,0x6
    80000f4c:	466080e7          	jalr	1126(ra) # 800073ae <release>
  if (first) {
    80000f50:	00009797          	auipc	a5,0x9
    80000f54:	92078793          	addi	a5,a5,-1760 # 80009870 <first.1740>
    80000f58:	439c                	lw	a5,0(a5)
    80000f5a:	eb89                	bnez	a5,80000f6c <forkret+0x34>
  usertrapret();
    80000f5c:	00001097          	auipc	ra,0x1
    80000f60:	c26080e7          	jalr	-986(ra) # 80001b82 <usertrapret>
}
    80000f64:	60a2                	ld	ra,8(sp)
    80000f66:	6402                	ld	s0,0(sp)
    80000f68:	0141                	addi	sp,sp,16
    80000f6a:	8082                	ret
    first = 0;
    80000f6c:	00009797          	auipc	a5,0x9
    80000f70:	9007a223          	sw	zero,-1788(a5) # 80009870 <first.1740>
    fsinit(ROOTDEV);
    80000f74:	4505                	li	a0,1
    80000f76:	00002097          	auipc	ra,0x2
    80000f7a:	9d0080e7          	jalr	-1584(ra) # 80002946 <fsinit>
    80000f7e:	bff9                	j	80000f5c <forkret+0x24>

0000000080000f80 <allocpid>:
allocpid() {
    80000f80:	1101                	addi	sp,sp,-32
    80000f82:	ec06                	sd	ra,24(sp)
    80000f84:	e822                	sd	s0,16(sp)
    80000f86:	e426                	sd	s1,8(sp)
    80000f88:	e04a                	sd	s2,0(sp)
    80000f8a:	1000                	addi	s0,sp,32
  acquire(&pid_lock);
    80000f8c:	00009917          	auipc	s2,0x9
    80000f90:	0e490913          	addi	s2,s2,228 # 8000a070 <pid_lock>
    80000f94:	854a                	mv	a0,s2
    80000f96:	00006097          	auipc	ra,0x6
    80000f9a:	364080e7          	jalr	868(ra) # 800072fa <acquire>
  pid = nextpid;
    80000f9e:	00009797          	auipc	a5,0x9
    80000fa2:	8d678793          	addi	a5,a5,-1834 # 80009874 <nextpid>
    80000fa6:	4384                	lw	s1,0(a5)
  nextpid = nextpid + 1;
    80000fa8:	0014871b          	addiw	a4,s1,1
    80000fac:	c398                	sw	a4,0(a5)
  release(&pid_lock);
    80000fae:	854a                	mv	a0,s2
    80000fb0:	00006097          	auipc	ra,0x6
    80000fb4:	3fe080e7          	jalr	1022(ra) # 800073ae <release>
}
    80000fb8:	8526                	mv	a0,s1
    80000fba:	60e2                	ld	ra,24(sp)
    80000fbc:	6442                	ld	s0,16(sp)
    80000fbe:	64a2                	ld	s1,8(sp)
    80000fc0:	6902                	ld	s2,0(sp)
    80000fc2:	6105                	addi	sp,sp,32
    80000fc4:	8082                	ret

0000000080000fc6 <proc_pagetable>:
{
    80000fc6:	1101                	addi	sp,sp,-32
    80000fc8:	ec06                	sd	ra,24(sp)
    80000fca:	e822                	sd	s0,16(sp)
    80000fcc:	e426                	sd	s1,8(sp)
    80000fce:	e04a                	sd	s2,0(sp)
    80000fd0:	1000                	addi	s0,sp,32
    80000fd2:	892a                	mv	s2,a0
  pagetable = uvmcreate();
    80000fd4:	00000097          	auipc	ra,0x0
    80000fd8:	874080e7          	jalr	-1932(ra) # 80000848 <uvmcreate>
    80000fdc:	84aa                	mv	s1,a0
  if(pagetable == 0)
    80000fde:	c121                	beqz	a0,8000101e <proc_pagetable+0x58>
  if(mappages(pagetable, TRAMPOLINE, PGSIZE,
    80000fe0:	4729                	li	a4,10
    80000fe2:	00007697          	auipc	a3,0x7
    80000fe6:	01e68693          	addi	a3,a3,30 # 80008000 <_trampoline>
    80000fea:	6605                	lui	a2,0x1
    80000fec:	040005b7          	lui	a1,0x4000
    80000ff0:	15fd                	addi	a1,a1,-1
    80000ff2:	05b2                	slli	a1,a1,0xc
    80000ff4:	fffff097          	auipc	ra,0xfffff
    80000ff8:	598080e7          	jalr	1432(ra) # 8000058c <mappages>
    80000ffc:	02054863          	bltz	a0,8000102c <proc_pagetable+0x66>
  if(mappages(pagetable, TRAPFRAME, PGSIZE,
    80001000:	4719                	li	a4,6
    80001002:	05893683          	ld	a3,88(s2)
    80001006:	6605                	lui	a2,0x1
    80001008:	020005b7          	lui	a1,0x2000
    8000100c:	15fd                	addi	a1,a1,-1
    8000100e:	05b6                	slli	a1,a1,0xd
    80001010:	8526                	mv	a0,s1
    80001012:	fffff097          	auipc	ra,0xfffff
    80001016:	57a080e7          	jalr	1402(ra) # 8000058c <mappages>
    8000101a:	02054163          	bltz	a0,8000103c <proc_pagetable+0x76>
}
    8000101e:	8526                	mv	a0,s1
    80001020:	60e2                	ld	ra,24(sp)
    80001022:	6442                	ld	s0,16(sp)
    80001024:	64a2                	ld	s1,8(sp)
    80001026:	6902                	ld	s2,0(sp)
    80001028:	6105                	addi	sp,sp,32
    8000102a:	8082                	ret
    uvmfree(pagetable, 0);
    8000102c:	4581                	li	a1,0
    8000102e:	8526                	mv	a0,s1
    80001030:	00000097          	auipc	ra,0x0
    80001034:	a12080e7          	jalr	-1518(ra) # 80000a42 <uvmfree>
    return 0;
    80001038:	4481                	li	s1,0
    8000103a:	b7d5                	j	8000101e <proc_pagetable+0x58>
    uvmunmap(pagetable, TRAMPOLINE, 1, 0);
    8000103c:	4681                	li	a3,0
    8000103e:	4605                	li	a2,1
    80001040:	040005b7          	lui	a1,0x4000
    80001044:	15fd                	addi	a1,a1,-1
    80001046:	05b2                	slli	a1,a1,0xc
    80001048:	8526                	mv	a0,s1
    8000104a:	fffff097          	auipc	ra,0xfffff
    8000104e:	724080e7          	jalr	1828(ra) # 8000076e <uvmunmap>
    uvmfree(pagetable, 0);
    80001052:	4581                	li	a1,0
    80001054:	8526                	mv	a0,s1
    80001056:	00000097          	auipc	ra,0x0
    8000105a:	9ec080e7          	jalr	-1556(ra) # 80000a42 <uvmfree>
    return 0;
    8000105e:	4481                	li	s1,0
    80001060:	bf7d                	j	8000101e <proc_pagetable+0x58>

0000000080001062 <proc_freepagetable>:
{
    80001062:	1101                	addi	sp,sp,-32
    80001064:	ec06                	sd	ra,24(sp)
    80001066:	e822                	sd	s0,16(sp)
    80001068:	e426                	sd	s1,8(sp)
    8000106a:	e04a                	sd	s2,0(sp)
    8000106c:	1000                	addi	s0,sp,32
    8000106e:	84aa                	mv	s1,a0
    80001070:	892e                	mv	s2,a1
  uvmunmap(pagetable, TRAMPOLINE, 1, 0);
    80001072:	4681                	li	a3,0
    80001074:	4605                	li	a2,1
    80001076:	040005b7          	lui	a1,0x4000
    8000107a:	15fd                	addi	a1,a1,-1
    8000107c:	05b2                	slli	a1,a1,0xc
    8000107e:	fffff097          	auipc	ra,0xfffff
    80001082:	6f0080e7          	jalr	1776(ra) # 8000076e <uvmunmap>
  uvmunmap(pagetable, TRAPFRAME, 1, 0);
    80001086:	4681                	li	a3,0
    80001088:	4605                	li	a2,1
    8000108a:	020005b7          	lui	a1,0x2000
    8000108e:	15fd                	addi	a1,a1,-1
    80001090:	05b6                	slli	a1,a1,0xd
    80001092:	8526                	mv	a0,s1
    80001094:	fffff097          	auipc	ra,0xfffff
    80001098:	6da080e7          	jalr	1754(ra) # 8000076e <uvmunmap>
  uvmfree(pagetable, sz);
    8000109c:	85ca                	mv	a1,s2
    8000109e:	8526                	mv	a0,s1
    800010a0:	00000097          	auipc	ra,0x0
    800010a4:	9a2080e7          	jalr	-1630(ra) # 80000a42 <uvmfree>
}
    800010a8:	60e2                	ld	ra,24(sp)
    800010aa:	6442                	ld	s0,16(sp)
    800010ac:	64a2                	ld	s1,8(sp)
    800010ae:	6902                	ld	s2,0(sp)
    800010b0:	6105                	addi	sp,sp,32
    800010b2:	8082                	ret

00000000800010b4 <freeproc>:
{
    800010b4:	1101                	addi	sp,sp,-32
    800010b6:	ec06                	sd	ra,24(sp)
    800010b8:	e822                	sd	s0,16(sp)
    800010ba:	e426                	sd	s1,8(sp)
    800010bc:	1000                	addi	s0,sp,32
    800010be:	84aa                	mv	s1,a0
  if(p->trapframe)
    800010c0:	6d28                	ld	a0,88(a0)
    800010c2:	c509                	beqz	a0,800010cc <freeproc+0x18>
    kfree((void*)p->trapframe);
    800010c4:	fffff097          	auipc	ra,0xfffff
    800010c8:	f58080e7          	jalr	-168(ra) # 8000001c <kfree>
  p->trapframe = 0;
    800010cc:	0404bc23          	sd	zero,88(s1)
  if(p->pagetable)
    800010d0:	68a8                	ld	a0,80(s1)
    800010d2:	c511                	beqz	a0,800010de <freeproc+0x2a>
    proc_freepagetable(p->pagetable, p->sz);
    800010d4:	64ac                	ld	a1,72(s1)
    800010d6:	00000097          	auipc	ra,0x0
    800010da:	f8c080e7          	jalr	-116(ra) # 80001062 <proc_freepagetable>
  p->pagetable = 0;
    800010de:	0404b823          	sd	zero,80(s1)
  p->sz = 0;
    800010e2:	0404b423          	sd	zero,72(s1)
  p->pid = 0;
    800010e6:	0204ac23          	sw	zero,56(s1)
  p->parent = 0;
    800010ea:	0204b023          	sd	zero,32(s1)
  p->name[0] = 0;
    800010ee:	14048c23          	sb	zero,344(s1)
  p->chan = 0;
    800010f2:	0204b423          	sd	zero,40(s1)
  p->killed = 0;
    800010f6:	0204a823          	sw	zero,48(s1)
  p->xstate = 0;
    800010fa:	0204aa23          	sw	zero,52(s1)
  p->state = UNUSED;
    800010fe:	0004ac23          	sw	zero,24(s1)
}
    80001102:	60e2                	ld	ra,24(sp)
    80001104:	6442                	ld	s0,16(sp)
    80001106:	64a2                	ld	s1,8(sp)
    80001108:	6105                	addi	sp,sp,32
    8000110a:	8082                	ret

000000008000110c <allocproc>:
{
    8000110c:	1101                	addi	sp,sp,-32
    8000110e:	ec06                	sd	ra,24(sp)
    80001110:	e822                	sd	s0,16(sp)
    80001112:	e426                	sd	s1,8(sp)
    80001114:	e04a                	sd	s2,0(sp)
    80001116:	1000                	addi	s0,sp,32
  for(p = proc; p < &proc[NPROC]; p++) {
    80001118:	00009497          	auipc	s1,0x9
    8000111c:	37048493          	addi	s1,s1,880 # 8000a488 <proc>
    80001120:	0000f917          	auipc	s2,0xf
    80001124:	d6890913          	addi	s2,s2,-664 # 8000fe88 <tickslock>
    acquire(&p->lock);
    80001128:	8526                	mv	a0,s1
    8000112a:	00006097          	auipc	ra,0x6
    8000112e:	1d0080e7          	jalr	464(ra) # 800072fa <acquire>
    if(p->state == UNUSED) {
    80001132:	4c9c                	lw	a5,24(s1)
    80001134:	cf81                	beqz	a5,8000114c <allocproc+0x40>
      release(&p->lock);
    80001136:	8526                	mv	a0,s1
    80001138:	00006097          	auipc	ra,0x6
    8000113c:	276080e7          	jalr	630(ra) # 800073ae <release>
  for(p = proc; p < &proc[NPROC]; p++) {
    80001140:	16848493          	addi	s1,s1,360
    80001144:	ff2492e3          	bne	s1,s2,80001128 <allocproc+0x1c>
  return 0;
    80001148:	4481                	li	s1,0
    8000114a:	a0b9                	j	80001198 <allocproc+0x8c>
  p->pid = allocpid();
    8000114c:	00000097          	auipc	ra,0x0
    80001150:	e34080e7          	jalr	-460(ra) # 80000f80 <allocpid>
    80001154:	dc88                	sw	a0,56(s1)
  if((p->trapframe = (struct trapframe *)kalloc()) == 0){
    80001156:	fffff097          	auipc	ra,0xfffff
    8000115a:	fc6080e7          	jalr	-58(ra) # 8000011c <kalloc>
    8000115e:	892a                	mv	s2,a0
    80001160:	eca8                	sd	a0,88(s1)
    80001162:	c131                	beqz	a0,800011a6 <allocproc+0x9a>
  p->pagetable = proc_pagetable(p);
    80001164:	8526                	mv	a0,s1
    80001166:	00000097          	auipc	ra,0x0
    8000116a:	e60080e7          	jalr	-416(ra) # 80000fc6 <proc_pagetable>
    8000116e:	892a                	mv	s2,a0
    80001170:	e8a8                	sd	a0,80(s1)
  if(p->pagetable == 0){
    80001172:	c129                	beqz	a0,800011b4 <allocproc+0xa8>
  memset(&p->context, 0, sizeof(p->context));
    80001174:	07000613          	li	a2,112
    80001178:	4581                	li	a1,0
    8000117a:	06048513          	addi	a0,s1,96
    8000117e:	fffff097          	auipc	ra,0xfffff
    80001182:	ffe080e7          	jalr	-2(ra) # 8000017c <memset>
  p->context.ra = (uint64)forkret;
    80001186:	00000797          	auipc	a5,0x0
    8000118a:	db278793          	addi	a5,a5,-590 # 80000f38 <forkret>
    8000118e:	f0bc                	sd	a5,96(s1)
  p->context.sp = p->kstack + PGSIZE;
    80001190:	60bc                	ld	a5,64(s1)
    80001192:	6705                	lui	a4,0x1
    80001194:	97ba                	add	a5,a5,a4
    80001196:	f4bc                	sd	a5,104(s1)
}
    80001198:	8526                	mv	a0,s1
    8000119a:	60e2                	ld	ra,24(sp)
    8000119c:	6442                	ld	s0,16(sp)
    8000119e:	64a2                	ld	s1,8(sp)
    800011a0:	6902                	ld	s2,0(sp)
    800011a2:	6105                	addi	sp,sp,32
    800011a4:	8082                	ret
    release(&p->lock);
    800011a6:	8526                	mv	a0,s1
    800011a8:	00006097          	auipc	ra,0x6
    800011ac:	206080e7          	jalr	518(ra) # 800073ae <release>
    return 0;
    800011b0:	84ca                	mv	s1,s2
    800011b2:	b7dd                	j	80001198 <allocproc+0x8c>
    freeproc(p);
    800011b4:	8526                	mv	a0,s1
    800011b6:	00000097          	auipc	ra,0x0
    800011ba:	efe080e7          	jalr	-258(ra) # 800010b4 <freeproc>
    release(&p->lock);
    800011be:	8526                	mv	a0,s1
    800011c0:	00006097          	auipc	ra,0x6
    800011c4:	1ee080e7          	jalr	494(ra) # 800073ae <release>
    return 0;
    800011c8:	84ca                	mv	s1,s2
    800011ca:	b7f9                	j	80001198 <allocproc+0x8c>

00000000800011cc <userinit>:
{
    800011cc:	1101                	addi	sp,sp,-32
    800011ce:	ec06                	sd	ra,24(sp)
    800011d0:	e822                	sd	s0,16(sp)
    800011d2:	e426                	sd	s1,8(sp)
    800011d4:	1000                	addi	s0,sp,32
  p = allocproc();
    800011d6:	00000097          	auipc	ra,0x0
    800011da:	f36080e7          	jalr	-202(ra) # 8000110c <allocproc>
    800011de:	84aa                	mv	s1,a0
  initproc = p;
    800011e0:	00009797          	auipc	a5,0x9
    800011e4:	e2a7b823          	sd	a0,-464(a5) # 8000a010 <initproc>
  uvminit(p->pagetable, initcode, sizeof(initcode));
    800011e8:	03400613          	li	a2,52
    800011ec:	00008597          	auipc	a1,0x8
    800011f0:	6a458593          	addi	a1,a1,1700 # 80009890 <initcode>
    800011f4:	6928                	ld	a0,80(a0)
    800011f6:	fffff097          	auipc	ra,0xfffff
    800011fa:	680080e7          	jalr	1664(ra) # 80000876 <uvminit>
  p->sz = PGSIZE;
    800011fe:	6785                	lui	a5,0x1
    80001200:	e4bc                	sd	a5,72(s1)
  p->trapframe->epc = 0;      // user program counter
    80001202:	6cb8                	ld	a4,88(s1)
    80001204:	00073c23          	sd	zero,24(a4) # 1018 <_entry-0x7fffefe8>
  p->trapframe->sp = PGSIZE;  // user stack pointer
    80001208:	6cb8                	ld	a4,88(s1)
    8000120a:	fb1c                	sd	a5,48(a4)
  safestrcpy(p->name, "initcode", sizeof(p->name));
    8000120c:	4641                	li	a2,16
    8000120e:	00008597          	auipc	a1,0x8
    80001212:	f8a58593          	addi	a1,a1,-118 # 80009198 <states.1780+0x48>
    80001216:	15848513          	addi	a0,s1,344
    8000121a:	fffff097          	auipc	ra,0xfffff
    8000121e:	0da080e7          	jalr	218(ra) # 800002f4 <safestrcpy>
  p->cwd = namei("/");
    80001222:	00008517          	auipc	a0,0x8
    80001226:	f8650513          	addi	a0,a0,-122 # 800091a8 <states.1780+0x58>
    8000122a:	00002097          	auipc	ra,0x2
    8000122e:	156080e7          	jalr	342(ra) # 80003380 <namei>
    80001232:	14a4b823          	sd	a0,336(s1)
  p->state = RUNNABLE;
    80001236:	4789                	li	a5,2
    80001238:	cc9c                	sw	a5,24(s1)
  release(&p->lock);
    8000123a:	8526                	mv	a0,s1
    8000123c:	00006097          	auipc	ra,0x6
    80001240:	172080e7          	jalr	370(ra) # 800073ae <release>
}
    80001244:	60e2                	ld	ra,24(sp)
    80001246:	6442                	ld	s0,16(sp)
    80001248:	64a2                	ld	s1,8(sp)
    8000124a:	6105                	addi	sp,sp,32
    8000124c:	8082                	ret

000000008000124e <growproc>:
{
    8000124e:	1101                	addi	sp,sp,-32
    80001250:	ec06                	sd	ra,24(sp)
    80001252:	e822                	sd	s0,16(sp)
    80001254:	e426                	sd	s1,8(sp)
    80001256:	e04a                	sd	s2,0(sp)
    80001258:	1000                	addi	s0,sp,32
    8000125a:	84aa                	mv	s1,a0
  struct proc *p = myproc();
    8000125c:	00000097          	auipc	ra,0x0
    80001260:	ca4080e7          	jalr	-860(ra) # 80000f00 <myproc>
    80001264:	892a                	mv	s2,a0
  sz = p->sz;
    80001266:	652c                	ld	a1,72(a0)
    80001268:	0005851b          	sext.w	a0,a1
  if(n > 0){
    8000126c:	00904f63          	bgtz	s1,8000128a <growproc+0x3c>
  } else if(n < 0){
    80001270:	0204cd63          	bltz	s1,800012aa <growproc+0x5c>
  p->sz = sz;
    80001274:	1502                	slli	a0,a0,0x20
    80001276:	9101                	srli	a0,a0,0x20
    80001278:	04a93423          	sd	a0,72(s2)
  return 0;
    8000127c:	4501                	li	a0,0
}
    8000127e:	60e2                	ld	ra,24(sp)
    80001280:	6442                	ld	s0,16(sp)
    80001282:	64a2                	ld	s1,8(sp)
    80001284:	6902                	ld	s2,0(sp)
    80001286:	6105                	addi	sp,sp,32
    80001288:	8082                	ret
    if((sz = uvmalloc(p->pagetable, sz, sz + n)) == 0) {
    8000128a:	00a4863b          	addw	a2,s1,a0
    8000128e:	1602                	slli	a2,a2,0x20
    80001290:	9201                	srli	a2,a2,0x20
    80001292:	1582                	slli	a1,a1,0x20
    80001294:	9181                	srli	a1,a1,0x20
    80001296:	05093503          	ld	a0,80(s2)
    8000129a:	fffff097          	auipc	ra,0xfffff
    8000129e:	694080e7          	jalr	1684(ra) # 8000092e <uvmalloc>
    800012a2:	2501                	sext.w	a0,a0
    800012a4:	f961                	bnez	a0,80001274 <growproc+0x26>
      return -1;
    800012a6:	557d                	li	a0,-1
    800012a8:	bfd9                	j	8000127e <growproc+0x30>
    sz = uvmdealloc(p->pagetable, sz, sz + n);
    800012aa:	00a4863b          	addw	a2,s1,a0
    800012ae:	1602                	slli	a2,a2,0x20
    800012b0:	9201                	srli	a2,a2,0x20
    800012b2:	1582                	slli	a1,a1,0x20
    800012b4:	9181                	srli	a1,a1,0x20
    800012b6:	05093503          	ld	a0,80(s2)
    800012ba:	fffff097          	auipc	ra,0xfffff
    800012be:	62e080e7          	jalr	1582(ra) # 800008e8 <uvmdealloc>
    800012c2:	2501                	sext.w	a0,a0
    800012c4:	bf45                	j	80001274 <growproc+0x26>

00000000800012c6 <fork>:
{
    800012c6:	7179                	addi	sp,sp,-48
    800012c8:	f406                	sd	ra,40(sp)
    800012ca:	f022                	sd	s0,32(sp)
    800012cc:	ec26                	sd	s1,24(sp)
    800012ce:	e84a                	sd	s2,16(sp)
    800012d0:	e44e                	sd	s3,8(sp)
    800012d2:	e052                	sd	s4,0(sp)
    800012d4:	1800                	addi	s0,sp,48
  struct proc *p = myproc();
    800012d6:	00000097          	auipc	ra,0x0
    800012da:	c2a080e7          	jalr	-982(ra) # 80000f00 <myproc>
    800012de:	892a                	mv	s2,a0
  if((np = allocproc()) == 0){
    800012e0:	00000097          	auipc	ra,0x0
    800012e4:	e2c080e7          	jalr	-468(ra) # 8000110c <allocproc>
    800012e8:	c175                	beqz	a0,800013cc <fork+0x106>
    800012ea:	89aa                	mv	s3,a0
  if(uvmcopy(p->pagetable, np->pagetable, p->sz) < 0){
    800012ec:	04893603          	ld	a2,72(s2)
    800012f0:	692c                	ld	a1,80(a0)
    800012f2:	05093503          	ld	a0,80(s2)
    800012f6:	fffff097          	auipc	ra,0xfffff
    800012fa:	784080e7          	jalr	1924(ra) # 80000a7a <uvmcopy>
    800012fe:	04054863          	bltz	a0,8000134e <fork+0x88>
  np->sz = p->sz;
    80001302:	04893783          	ld	a5,72(s2)
    80001306:	04f9b423          	sd	a5,72(s3)
  np->parent = p;
    8000130a:	0329b023          	sd	s2,32(s3)
  *(np->trapframe) = *(p->trapframe);
    8000130e:	05893683          	ld	a3,88(s2)
    80001312:	87b6                	mv	a5,a3
    80001314:	0589b703          	ld	a4,88(s3)
    80001318:	12068693          	addi	a3,a3,288
    8000131c:	0007b803          	ld	a6,0(a5) # 1000 <_entry-0x7ffff000>
    80001320:	6788                	ld	a0,8(a5)
    80001322:	6b8c                	ld	a1,16(a5)
    80001324:	6f90                	ld	a2,24(a5)
    80001326:	01073023          	sd	a6,0(a4)
    8000132a:	e708                	sd	a0,8(a4)
    8000132c:	eb0c                	sd	a1,16(a4)
    8000132e:	ef10                	sd	a2,24(a4)
    80001330:	02078793          	addi	a5,a5,32
    80001334:	02070713          	addi	a4,a4,32
    80001338:	fed792e3          	bne	a5,a3,8000131c <fork+0x56>
  np->trapframe->a0 = 0;
    8000133c:	0589b783          	ld	a5,88(s3)
    80001340:	0607b823          	sd	zero,112(a5)
    80001344:	0d000493          	li	s1,208
  for(i = 0; i < NOFILE; i++)
    80001348:	15000a13          	li	s4,336
    8000134c:	a03d                	j	8000137a <fork+0xb4>
    freeproc(np);
    8000134e:	854e                	mv	a0,s3
    80001350:	00000097          	auipc	ra,0x0
    80001354:	d64080e7          	jalr	-668(ra) # 800010b4 <freeproc>
    release(&np->lock);
    80001358:	854e                	mv	a0,s3
    8000135a:	00006097          	auipc	ra,0x6
    8000135e:	054080e7          	jalr	84(ra) # 800073ae <release>
    return -1;
    80001362:	54fd                	li	s1,-1
    80001364:	a899                	j	800013ba <fork+0xf4>
      np->ofile[i] = filedup(p->ofile[i]);
    80001366:	00002097          	auipc	ra,0x2
    8000136a:	6ea080e7          	jalr	1770(ra) # 80003a50 <filedup>
    8000136e:	009987b3          	add	a5,s3,s1
    80001372:	e388                	sd	a0,0(a5)
  for(i = 0; i < NOFILE; i++)
    80001374:	04a1                	addi	s1,s1,8
    80001376:	01448763          	beq	s1,s4,80001384 <fork+0xbe>
    if(p->ofile[i])
    8000137a:	009907b3          	add	a5,s2,s1
    8000137e:	6388                	ld	a0,0(a5)
    80001380:	f17d                	bnez	a0,80001366 <fork+0xa0>
    80001382:	bfcd                	j	80001374 <fork+0xae>
  np->cwd = idup(p->cwd);
    80001384:	15093503          	ld	a0,336(s2)
    80001388:	00001097          	auipc	ra,0x1
    8000138c:	7fa080e7          	jalr	2042(ra) # 80002b82 <idup>
    80001390:	14a9b823          	sd	a0,336(s3)
  safestrcpy(np->name, p->name, sizeof(p->name));
    80001394:	4641                	li	a2,16
    80001396:	15890593          	addi	a1,s2,344
    8000139a:	15898513          	addi	a0,s3,344
    8000139e:	fffff097          	auipc	ra,0xfffff
    800013a2:	f56080e7          	jalr	-170(ra) # 800002f4 <safestrcpy>
  pid = np->pid;
    800013a6:	0389a483          	lw	s1,56(s3)
  np->state = RUNNABLE;
    800013aa:	4789                	li	a5,2
    800013ac:	00f9ac23          	sw	a5,24(s3)
  release(&np->lock);
    800013b0:	854e                	mv	a0,s3
    800013b2:	00006097          	auipc	ra,0x6
    800013b6:	ffc080e7          	jalr	-4(ra) # 800073ae <release>
}
    800013ba:	8526                	mv	a0,s1
    800013bc:	70a2                	ld	ra,40(sp)
    800013be:	7402                	ld	s0,32(sp)
    800013c0:	64e2                	ld	s1,24(sp)
    800013c2:	6942                	ld	s2,16(sp)
    800013c4:	69a2                	ld	s3,8(sp)
    800013c6:	6a02                	ld	s4,0(sp)
    800013c8:	6145                	addi	sp,sp,48
    800013ca:	8082                	ret
    return -1;
    800013cc:	54fd                	li	s1,-1
    800013ce:	b7f5                	j	800013ba <fork+0xf4>

00000000800013d0 <reparent>:
{
    800013d0:	7179                	addi	sp,sp,-48
    800013d2:	f406                	sd	ra,40(sp)
    800013d4:	f022                	sd	s0,32(sp)
    800013d6:	ec26                	sd	s1,24(sp)
    800013d8:	e84a                	sd	s2,16(sp)
    800013da:	e44e                	sd	s3,8(sp)
    800013dc:	e052                	sd	s4,0(sp)
    800013de:	1800                	addi	s0,sp,48
    800013e0:	89aa                	mv	s3,a0
  for(pp = proc; pp < &proc[NPROC]; pp++){
    800013e2:	00009497          	auipc	s1,0x9
    800013e6:	0a648493          	addi	s1,s1,166 # 8000a488 <proc>
      pp->parent = initproc;
    800013ea:	00009a17          	auipc	s4,0x9
    800013ee:	c26a0a13          	addi	s4,s4,-986 # 8000a010 <initproc>
  for(pp = proc; pp < &proc[NPROC]; pp++){
    800013f2:	0000f917          	auipc	s2,0xf
    800013f6:	a9690913          	addi	s2,s2,-1386 # 8000fe88 <tickslock>
    800013fa:	a029                	j	80001404 <reparent+0x34>
    800013fc:	16848493          	addi	s1,s1,360
    80001400:	03248363          	beq	s1,s2,80001426 <reparent+0x56>
    if(pp->parent == p){
    80001404:	709c                	ld	a5,32(s1)
    80001406:	ff379be3          	bne	a5,s3,800013fc <reparent+0x2c>
      acquire(&pp->lock);
    8000140a:	8526                	mv	a0,s1
    8000140c:	00006097          	auipc	ra,0x6
    80001410:	eee080e7          	jalr	-274(ra) # 800072fa <acquire>
      pp->parent = initproc;
    80001414:	000a3783          	ld	a5,0(s4)
    80001418:	f09c                	sd	a5,32(s1)
      release(&pp->lock);
    8000141a:	8526                	mv	a0,s1
    8000141c:	00006097          	auipc	ra,0x6
    80001420:	f92080e7          	jalr	-110(ra) # 800073ae <release>
    80001424:	bfe1                	j	800013fc <reparent+0x2c>
}
    80001426:	70a2                	ld	ra,40(sp)
    80001428:	7402                	ld	s0,32(sp)
    8000142a:	64e2                	ld	s1,24(sp)
    8000142c:	6942                	ld	s2,16(sp)
    8000142e:	69a2                	ld	s3,8(sp)
    80001430:	6a02                	ld	s4,0(sp)
    80001432:	6145                	addi	sp,sp,48
    80001434:	8082                	ret

0000000080001436 <scheduler>:
{
    80001436:	711d                	addi	sp,sp,-96
    80001438:	ec86                	sd	ra,88(sp)
    8000143a:	e8a2                	sd	s0,80(sp)
    8000143c:	e4a6                	sd	s1,72(sp)
    8000143e:	e0ca                	sd	s2,64(sp)
    80001440:	fc4e                	sd	s3,56(sp)
    80001442:	f852                	sd	s4,48(sp)
    80001444:	f456                	sd	s5,40(sp)
    80001446:	f05a                	sd	s6,32(sp)
    80001448:	ec5e                	sd	s7,24(sp)
    8000144a:	e862                	sd	s8,16(sp)
    8000144c:	e466                	sd	s9,8(sp)
    8000144e:	1080                	addi	s0,sp,96
    80001450:	8792                	mv	a5,tp
  int id = r_tp();
    80001452:	2781                	sext.w	a5,a5
  c->proc = 0;
    80001454:	00779c13          	slli	s8,a5,0x7
    80001458:	00009717          	auipc	a4,0x9
    8000145c:	c1870713          	addi	a4,a4,-1000 # 8000a070 <pid_lock>
    80001460:	9762                	add	a4,a4,s8
    80001462:	00073c23          	sd	zero,24(a4)
        swtch(&c->context, &p->context);
    80001466:	00009717          	auipc	a4,0x9
    8000146a:	c2a70713          	addi	a4,a4,-982 # 8000a090 <cpus+0x8>
    8000146e:	9c3a                	add	s8,s8,a4
      if(p->state == RUNNABLE) {
    80001470:	4a89                	li	s5,2
        c->proc = p;
    80001472:	079e                	slli	a5,a5,0x7
    80001474:	00009b17          	auipc	s6,0x9
    80001478:	bfcb0b13          	addi	s6,s6,-1028 # 8000a070 <pid_lock>
    8000147c:	9b3e                	add	s6,s6,a5
    for(p = proc; p < &proc[NPROC]; p++) {
    8000147e:	0000fa17          	auipc	s4,0xf
    80001482:	a0aa0a13          	addi	s4,s4,-1526 # 8000fe88 <tickslock>
    int nproc = 0;
    80001486:	4c81                	li	s9,0
    80001488:	a8a1                	j	800014e0 <scheduler+0xaa>
        p->state = RUNNING;
    8000148a:	0174ac23          	sw	s7,24(s1)
        c->proc = p;
    8000148e:	009b3c23          	sd	s1,24(s6)
        swtch(&c->context, &p->context);
    80001492:	06048593          	addi	a1,s1,96
    80001496:	8562                	mv	a0,s8
    80001498:	00000097          	auipc	ra,0x0
    8000149c:	640080e7          	jalr	1600(ra) # 80001ad8 <swtch>
        c->proc = 0;
    800014a0:	000b3c23          	sd	zero,24(s6)
      release(&p->lock);
    800014a4:	8526                	mv	a0,s1
    800014a6:	00006097          	auipc	ra,0x6
    800014aa:	f08080e7          	jalr	-248(ra) # 800073ae <release>
    for(p = proc; p < &proc[NPROC]; p++) {
    800014ae:	16848493          	addi	s1,s1,360
    800014b2:	01448d63          	beq	s1,s4,800014cc <scheduler+0x96>
      acquire(&p->lock);
    800014b6:	8526                	mv	a0,s1
    800014b8:	00006097          	auipc	ra,0x6
    800014bc:	e42080e7          	jalr	-446(ra) # 800072fa <acquire>
      if(p->state != UNUSED) {
    800014c0:	4c9c                	lw	a5,24(s1)
    800014c2:	d3ed                	beqz	a5,800014a4 <scheduler+0x6e>
        nproc++;
    800014c4:	2985                	addiw	s3,s3,1
      if(p->state == RUNNABLE) {
    800014c6:	fd579fe3          	bne	a5,s5,800014a4 <scheduler+0x6e>
    800014ca:	b7c1                	j	8000148a <scheduler+0x54>
    if(nproc <= 2) {   // only init and sh exist
    800014cc:	013aca63          	blt	s5,s3,800014e0 <scheduler+0xaa>
  asm volatile("csrr %0, sstatus" : "=r" (x) );
    800014d0:	100027f3          	csrr	a5,sstatus
  w_sstatus(r_sstatus() | SSTATUS_SIE);
    800014d4:	0027e793          	ori	a5,a5,2
  asm volatile("csrw sstatus, %0" : : "r" (x));
    800014d8:	10079073          	csrw	sstatus,a5
      asm volatile("wfi");
    800014dc:	10500073          	wfi
  asm volatile("csrr %0, sstatus" : "=r" (x) );
    800014e0:	100027f3          	csrr	a5,sstatus
  w_sstatus(r_sstatus() | SSTATUS_SIE);
    800014e4:	0027e793          	ori	a5,a5,2
  asm volatile("csrw sstatus, %0" : : "r" (x));
    800014e8:	10079073          	csrw	sstatus,a5
    int nproc = 0;
    800014ec:	89e6                	mv	s3,s9
    for(p = proc; p < &proc[NPROC]; p++) {
    800014ee:	00009497          	auipc	s1,0x9
    800014f2:	f9a48493          	addi	s1,s1,-102 # 8000a488 <proc>
        p->state = RUNNING;
    800014f6:	4b8d                	li	s7,3
    800014f8:	bf7d                	j	800014b6 <scheduler+0x80>

00000000800014fa <sched>:
{
    800014fa:	7179                	addi	sp,sp,-48
    800014fc:	f406                	sd	ra,40(sp)
    800014fe:	f022                	sd	s0,32(sp)
    80001500:	ec26                	sd	s1,24(sp)
    80001502:	e84a                	sd	s2,16(sp)
    80001504:	e44e                	sd	s3,8(sp)
    80001506:	1800                	addi	s0,sp,48
  struct proc *p = myproc();
    80001508:	00000097          	auipc	ra,0x0
    8000150c:	9f8080e7          	jalr	-1544(ra) # 80000f00 <myproc>
    80001510:	892a                	mv	s2,a0
  if(!holding(&p->lock))
    80001512:	00006097          	auipc	ra,0x6
    80001516:	d6e080e7          	jalr	-658(ra) # 80007280 <holding>
    8000151a:	cd25                	beqz	a0,80001592 <sched+0x98>
  asm volatile("mv %0, tp" : "=r" (x) );
    8000151c:	8792                	mv	a5,tp
  if(mycpu()->noff != 1)
    8000151e:	2781                	sext.w	a5,a5
    80001520:	079e                	slli	a5,a5,0x7
    80001522:	00009717          	auipc	a4,0x9
    80001526:	b4e70713          	addi	a4,a4,-1202 # 8000a070 <pid_lock>
    8000152a:	97ba                	add	a5,a5,a4
    8000152c:	0907a703          	lw	a4,144(a5)
    80001530:	4785                	li	a5,1
    80001532:	06f71863          	bne	a4,a5,800015a2 <sched+0xa8>
  if(p->state == RUNNING)
    80001536:	01892703          	lw	a4,24(s2)
    8000153a:	478d                	li	a5,3
    8000153c:	06f70b63          	beq	a4,a5,800015b2 <sched+0xb8>
  asm volatile("csrr %0, sstatus" : "=r" (x) );
    80001540:	100027f3          	csrr	a5,sstatus
  return (x & SSTATUS_SIE) != 0;
    80001544:	8b89                	andi	a5,a5,2
  if(intr_get())
    80001546:	efb5                	bnez	a5,800015c2 <sched+0xc8>
  asm volatile("mv %0, tp" : "=r" (x) );
    80001548:	8792                	mv	a5,tp
  intena = mycpu()->intena;
    8000154a:	00009497          	auipc	s1,0x9
    8000154e:	b2648493          	addi	s1,s1,-1242 # 8000a070 <pid_lock>
    80001552:	2781                	sext.w	a5,a5
    80001554:	079e                	slli	a5,a5,0x7
    80001556:	97a6                	add	a5,a5,s1
    80001558:	0947a983          	lw	s3,148(a5)
    8000155c:	8792                	mv	a5,tp
  swtch(&p->context, &mycpu()->context);
    8000155e:	2781                	sext.w	a5,a5
    80001560:	079e                	slli	a5,a5,0x7
    80001562:	00009597          	auipc	a1,0x9
    80001566:	b2e58593          	addi	a1,a1,-1234 # 8000a090 <cpus+0x8>
    8000156a:	95be                	add	a1,a1,a5
    8000156c:	06090513          	addi	a0,s2,96
    80001570:	00000097          	auipc	ra,0x0
    80001574:	568080e7          	jalr	1384(ra) # 80001ad8 <swtch>
    80001578:	8792                	mv	a5,tp
  mycpu()->intena = intena;
    8000157a:	2781                	sext.w	a5,a5
    8000157c:	079e                	slli	a5,a5,0x7
    8000157e:	97a6                	add	a5,a5,s1
    80001580:	0937aa23          	sw	s3,148(a5)
}
    80001584:	70a2                	ld	ra,40(sp)
    80001586:	7402                	ld	s0,32(sp)
    80001588:	64e2                	ld	s1,24(sp)
    8000158a:	6942                	ld	s2,16(sp)
    8000158c:	69a2                	ld	s3,8(sp)
    8000158e:	6145                	addi	sp,sp,48
    80001590:	8082                	ret
    panic("sched p->lock");
    80001592:	00008517          	auipc	a0,0x8
    80001596:	c1e50513          	addi	a0,a0,-994 # 800091b0 <states.1780+0x60>
    8000159a:	00005097          	auipc	ra,0x5
    8000159e:	7f4080e7          	jalr	2036(ra) # 80006d8e <panic>
    panic("sched locks");
    800015a2:	00008517          	auipc	a0,0x8
    800015a6:	c1e50513          	addi	a0,a0,-994 # 800091c0 <states.1780+0x70>
    800015aa:	00005097          	auipc	ra,0x5
    800015ae:	7e4080e7          	jalr	2020(ra) # 80006d8e <panic>
    panic("sched running");
    800015b2:	00008517          	auipc	a0,0x8
    800015b6:	c1e50513          	addi	a0,a0,-994 # 800091d0 <states.1780+0x80>
    800015ba:	00005097          	auipc	ra,0x5
    800015be:	7d4080e7          	jalr	2004(ra) # 80006d8e <panic>
    panic("sched interruptible");
    800015c2:	00008517          	auipc	a0,0x8
    800015c6:	c1e50513          	addi	a0,a0,-994 # 800091e0 <states.1780+0x90>
    800015ca:	00005097          	auipc	ra,0x5
    800015ce:	7c4080e7          	jalr	1988(ra) # 80006d8e <panic>

00000000800015d2 <exit>:
{
    800015d2:	7179                	addi	sp,sp,-48
    800015d4:	f406                	sd	ra,40(sp)
    800015d6:	f022                	sd	s0,32(sp)
    800015d8:	ec26                	sd	s1,24(sp)
    800015da:	e84a                	sd	s2,16(sp)
    800015dc:	e44e                	sd	s3,8(sp)
    800015de:	e052                	sd	s4,0(sp)
    800015e0:	1800                	addi	s0,sp,48
    800015e2:	8a2a                	mv	s4,a0
  struct proc *p = myproc();
    800015e4:	00000097          	auipc	ra,0x0
    800015e8:	91c080e7          	jalr	-1764(ra) # 80000f00 <myproc>
    800015ec:	89aa                	mv	s3,a0
  if(p == initproc)
    800015ee:	00009797          	auipc	a5,0x9
    800015f2:	a2278793          	addi	a5,a5,-1502 # 8000a010 <initproc>
    800015f6:	639c                	ld	a5,0(a5)
    800015f8:	0d050493          	addi	s1,a0,208
    800015fc:	15050913          	addi	s2,a0,336
    80001600:	02a79363          	bne	a5,a0,80001626 <exit+0x54>
    panic("init exiting");
    80001604:	00008517          	auipc	a0,0x8
    80001608:	bf450513          	addi	a0,a0,-1036 # 800091f8 <states.1780+0xa8>
    8000160c:	00005097          	auipc	ra,0x5
    80001610:	782080e7          	jalr	1922(ra) # 80006d8e <panic>
      fileclose(f);
    80001614:	00002097          	auipc	ra,0x2
    80001618:	48e080e7          	jalr	1166(ra) # 80003aa2 <fileclose>
      p->ofile[fd] = 0;
    8000161c:	0004b023          	sd	zero,0(s1)
  for(int fd = 0; fd < NOFILE; fd++){
    80001620:	04a1                	addi	s1,s1,8
    80001622:	01248563          	beq	s1,s2,8000162c <exit+0x5a>
    if(p->ofile[fd]){
    80001626:	6088                	ld	a0,0(s1)
    80001628:	f575                	bnez	a0,80001614 <exit+0x42>
    8000162a:	bfdd                	j	80001620 <exit+0x4e>
  begin_op();
    8000162c:	00002097          	auipc	ra,0x2
    80001630:	f72080e7          	jalr	-142(ra) # 8000359e <begin_op>
  iput(p->cwd);
    80001634:	1509b503          	ld	a0,336(s3)
    80001638:	00001097          	auipc	ra,0x1
    8000163c:	744080e7          	jalr	1860(ra) # 80002d7c <iput>
  end_op();
    80001640:	00002097          	auipc	ra,0x2
    80001644:	fde080e7          	jalr	-34(ra) # 8000361e <end_op>
  p->cwd = 0;
    80001648:	1409b823          	sd	zero,336(s3)
  acquire(&initproc->lock);
    8000164c:	00009497          	auipc	s1,0x9
    80001650:	9c448493          	addi	s1,s1,-1596 # 8000a010 <initproc>
    80001654:	6088                	ld	a0,0(s1)
    80001656:	00006097          	auipc	ra,0x6
    8000165a:	ca4080e7          	jalr	-860(ra) # 800072fa <acquire>
  wakeup1(initproc);
    8000165e:	6088                	ld	a0,0(s1)
    80001660:	fffff097          	auipc	ra,0xfffff
    80001664:	702080e7          	jalr	1794(ra) # 80000d62 <wakeup1>
  release(&initproc->lock);
    80001668:	6088                	ld	a0,0(s1)
    8000166a:	00006097          	auipc	ra,0x6
    8000166e:	d44080e7          	jalr	-700(ra) # 800073ae <release>
  acquire(&p->lock);
    80001672:	854e                	mv	a0,s3
    80001674:	00006097          	auipc	ra,0x6
    80001678:	c86080e7          	jalr	-890(ra) # 800072fa <acquire>
  struct proc *original_parent = p->parent;
    8000167c:	0209b483          	ld	s1,32(s3)
  release(&p->lock);
    80001680:	854e                	mv	a0,s3
    80001682:	00006097          	auipc	ra,0x6
    80001686:	d2c080e7          	jalr	-724(ra) # 800073ae <release>
  acquire(&original_parent->lock);
    8000168a:	8526                	mv	a0,s1
    8000168c:	00006097          	auipc	ra,0x6
    80001690:	c6e080e7          	jalr	-914(ra) # 800072fa <acquire>
  acquire(&p->lock);
    80001694:	854e                	mv	a0,s3
    80001696:	00006097          	auipc	ra,0x6
    8000169a:	c64080e7          	jalr	-924(ra) # 800072fa <acquire>
  reparent(p);
    8000169e:	854e                	mv	a0,s3
    800016a0:	00000097          	auipc	ra,0x0
    800016a4:	d30080e7          	jalr	-720(ra) # 800013d0 <reparent>
  wakeup1(original_parent);
    800016a8:	8526                	mv	a0,s1
    800016aa:	fffff097          	auipc	ra,0xfffff
    800016ae:	6b8080e7          	jalr	1720(ra) # 80000d62 <wakeup1>
  p->xstate = status;
    800016b2:	0349aa23          	sw	s4,52(s3)
  p->state = ZOMBIE;
    800016b6:	4791                	li	a5,4
    800016b8:	00f9ac23          	sw	a5,24(s3)
  release(&original_parent->lock);
    800016bc:	8526                	mv	a0,s1
    800016be:	00006097          	auipc	ra,0x6
    800016c2:	cf0080e7          	jalr	-784(ra) # 800073ae <release>
  sched();
    800016c6:	00000097          	auipc	ra,0x0
    800016ca:	e34080e7          	jalr	-460(ra) # 800014fa <sched>
  panic("zombie exit");
    800016ce:	00008517          	auipc	a0,0x8
    800016d2:	b3a50513          	addi	a0,a0,-1222 # 80009208 <states.1780+0xb8>
    800016d6:	00005097          	auipc	ra,0x5
    800016da:	6b8080e7          	jalr	1720(ra) # 80006d8e <panic>

00000000800016de <yield>:
{
    800016de:	1101                	addi	sp,sp,-32
    800016e0:	ec06                	sd	ra,24(sp)
    800016e2:	e822                	sd	s0,16(sp)
    800016e4:	e426                	sd	s1,8(sp)
    800016e6:	1000                	addi	s0,sp,32
  struct proc *p = myproc();
    800016e8:	00000097          	auipc	ra,0x0
    800016ec:	818080e7          	jalr	-2024(ra) # 80000f00 <myproc>
    800016f0:	84aa                	mv	s1,a0
  acquire(&p->lock);
    800016f2:	00006097          	auipc	ra,0x6
    800016f6:	c08080e7          	jalr	-1016(ra) # 800072fa <acquire>
  p->state = RUNNABLE;
    800016fa:	4789                	li	a5,2
    800016fc:	cc9c                	sw	a5,24(s1)
  sched();
    800016fe:	00000097          	auipc	ra,0x0
    80001702:	dfc080e7          	jalr	-516(ra) # 800014fa <sched>
  release(&p->lock);
    80001706:	8526                	mv	a0,s1
    80001708:	00006097          	auipc	ra,0x6
    8000170c:	ca6080e7          	jalr	-858(ra) # 800073ae <release>
}
    80001710:	60e2                	ld	ra,24(sp)
    80001712:	6442                	ld	s0,16(sp)
    80001714:	64a2                	ld	s1,8(sp)
    80001716:	6105                	addi	sp,sp,32
    80001718:	8082                	ret

000000008000171a <sleep>:
{
    8000171a:	7179                	addi	sp,sp,-48
    8000171c:	f406                	sd	ra,40(sp)
    8000171e:	f022                	sd	s0,32(sp)
    80001720:	ec26                	sd	s1,24(sp)
    80001722:	e84a                	sd	s2,16(sp)
    80001724:	e44e                	sd	s3,8(sp)
    80001726:	1800                	addi	s0,sp,48
    80001728:	89aa                	mv	s3,a0
    8000172a:	892e                	mv	s2,a1
  struct proc *p = myproc();
    8000172c:	fffff097          	auipc	ra,0xfffff
    80001730:	7d4080e7          	jalr	2004(ra) # 80000f00 <myproc>
    80001734:	84aa                	mv	s1,a0
  if(lk != &p->lock){  //DOC: sleeplock0
    80001736:	05250663          	beq	a0,s2,80001782 <sleep+0x68>
    acquire(&p->lock);  //DOC: sleeplock1
    8000173a:	00006097          	auipc	ra,0x6
    8000173e:	bc0080e7          	jalr	-1088(ra) # 800072fa <acquire>
    release(lk);
    80001742:	854a                	mv	a0,s2
    80001744:	00006097          	auipc	ra,0x6
    80001748:	c6a080e7          	jalr	-918(ra) # 800073ae <release>
  p->chan = chan;
    8000174c:	0334b423          	sd	s3,40(s1)
  p->state = SLEEPING;
    80001750:	4785                	li	a5,1
    80001752:	cc9c                	sw	a5,24(s1)
  sched();
    80001754:	00000097          	auipc	ra,0x0
    80001758:	da6080e7          	jalr	-602(ra) # 800014fa <sched>
  p->chan = 0;
    8000175c:	0204b423          	sd	zero,40(s1)
    release(&p->lock);
    80001760:	8526                	mv	a0,s1
    80001762:	00006097          	auipc	ra,0x6
    80001766:	c4c080e7          	jalr	-948(ra) # 800073ae <release>
    acquire(lk);
    8000176a:	854a                	mv	a0,s2
    8000176c:	00006097          	auipc	ra,0x6
    80001770:	b8e080e7          	jalr	-1138(ra) # 800072fa <acquire>
}
    80001774:	70a2                	ld	ra,40(sp)
    80001776:	7402                	ld	s0,32(sp)
    80001778:	64e2                	ld	s1,24(sp)
    8000177a:	6942                	ld	s2,16(sp)
    8000177c:	69a2                	ld	s3,8(sp)
    8000177e:	6145                	addi	sp,sp,48
    80001780:	8082                	ret
  p->chan = chan;
    80001782:	03353423          	sd	s3,40(a0)
  p->state = SLEEPING;
    80001786:	4785                	li	a5,1
    80001788:	cd1c                	sw	a5,24(a0)
  sched();
    8000178a:	00000097          	auipc	ra,0x0
    8000178e:	d70080e7          	jalr	-656(ra) # 800014fa <sched>
  p->chan = 0;
    80001792:	0204b423          	sd	zero,40(s1)
  if(lk != &p->lock){
    80001796:	bff9                	j	80001774 <sleep+0x5a>

0000000080001798 <wait>:
{
    80001798:	715d                	addi	sp,sp,-80
    8000179a:	e486                	sd	ra,72(sp)
    8000179c:	e0a2                	sd	s0,64(sp)
    8000179e:	fc26                	sd	s1,56(sp)
    800017a0:	f84a                	sd	s2,48(sp)
    800017a2:	f44e                	sd	s3,40(sp)
    800017a4:	f052                	sd	s4,32(sp)
    800017a6:	ec56                	sd	s5,24(sp)
    800017a8:	e85a                	sd	s6,16(sp)
    800017aa:	e45e                	sd	s7,8(sp)
    800017ac:	e062                	sd	s8,0(sp)
    800017ae:	0880                	addi	s0,sp,80
    800017b0:	8baa                	mv	s7,a0
  struct proc *p = myproc();
    800017b2:	fffff097          	auipc	ra,0xfffff
    800017b6:	74e080e7          	jalr	1870(ra) # 80000f00 <myproc>
    800017ba:	892a                	mv	s2,a0
  acquire(&p->lock);
    800017bc:	8c2a                	mv	s8,a0
    800017be:	00006097          	auipc	ra,0x6
    800017c2:	b3c080e7          	jalr	-1220(ra) # 800072fa <acquire>
    havekids = 0;
    800017c6:	4b01                	li	s6,0
        if(np->state == ZOMBIE){
    800017c8:	4a11                	li	s4,4
    for(np = proc; np < &proc[NPROC]; np++){
    800017ca:	0000e997          	auipc	s3,0xe
    800017ce:	6be98993          	addi	s3,s3,1726 # 8000fe88 <tickslock>
        havekids = 1;
    800017d2:	4a85                	li	s5,1
    havekids = 0;
    800017d4:	875a                	mv	a4,s6
    for(np = proc; np < &proc[NPROC]; np++){
    800017d6:	00009497          	auipc	s1,0x9
    800017da:	cb248493          	addi	s1,s1,-846 # 8000a488 <proc>
    800017de:	a08d                	j	80001840 <wait+0xa8>
          pid = np->pid;
    800017e0:	0384a983          	lw	s3,56(s1)
          if(addr != 0 && copyout(p->pagetable, addr, (char *)&np->xstate,
    800017e4:	000b8e63          	beqz	s7,80001800 <wait+0x68>
    800017e8:	4691                	li	a3,4
    800017ea:	03448613          	addi	a2,s1,52
    800017ee:	85de                	mv	a1,s7
    800017f0:	05093503          	ld	a0,80(s2)
    800017f4:	fffff097          	auipc	ra,0xfffff
    800017f8:	38a080e7          	jalr	906(ra) # 80000b7e <copyout>
    800017fc:	02054263          	bltz	a0,80001820 <wait+0x88>
          freeproc(np);
    80001800:	8526                	mv	a0,s1
    80001802:	00000097          	auipc	ra,0x0
    80001806:	8b2080e7          	jalr	-1870(ra) # 800010b4 <freeproc>
          release(&np->lock);
    8000180a:	8526                	mv	a0,s1
    8000180c:	00006097          	auipc	ra,0x6
    80001810:	ba2080e7          	jalr	-1118(ra) # 800073ae <release>
          release(&p->lock);
    80001814:	854a                	mv	a0,s2
    80001816:	00006097          	auipc	ra,0x6
    8000181a:	b98080e7          	jalr	-1128(ra) # 800073ae <release>
          return pid;
    8000181e:	a8a9                	j	80001878 <wait+0xe0>
            release(&np->lock);
    80001820:	8526                	mv	a0,s1
    80001822:	00006097          	auipc	ra,0x6
    80001826:	b8c080e7          	jalr	-1140(ra) # 800073ae <release>
            release(&p->lock);
    8000182a:	854a                	mv	a0,s2
    8000182c:	00006097          	auipc	ra,0x6
    80001830:	b82080e7          	jalr	-1150(ra) # 800073ae <release>
            return -1;
    80001834:	59fd                	li	s3,-1
    80001836:	a089                	j	80001878 <wait+0xe0>
    for(np = proc; np < &proc[NPROC]; np++){
    80001838:	16848493          	addi	s1,s1,360
    8000183c:	03348463          	beq	s1,s3,80001864 <wait+0xcc>
      if(np->parent == p){
    80001840:	709c                	ld	a5,32(s1)
    80001842:	ff279be3          	bne	a5,s2,80001838 <wait+0xa0>
        acquire(&np->lock);
    80001846:	8526                	mv	a0,s1
    80001848:	00006097          	auipc	ra,0x6
    8000184c:	ab2080e7          	jalr	-1358(ra) # 800072fa <acquire>
        if(np->state == ZOMBIE){
    80001850:	4c9c                	lw	a5,24(s1)
    80001852:	f94787e3          	beq	a5,s4,800017e0 <wait+0x48>
        release(&np->lock);
    80001856:	8526                	mv	a0,s1
    80001858:	00006097          	auipc	ra,0x6
    8000185c:	b56080e7          	jalr	-1194(ra) # 800073ae <release>
        havekids = 1;
    80001860:	8756                	mv	a4,s5
    80001862:	bfd9                	j	80001838 <wait+0xa0>
    if(!havekids || p->killed){
    80001864:	c701                	beqz	a4,8000186c <wait+0xd4>
    80001866:	03092783          	lw	a5,48(s2)
    8000186a:	c785                	beqz	a5,80001892 <wait+0xfa>
      release(&p->lock);
    8000186c:	854a                	mv	a0,s2
    8000186e:	00006097          	auipc	ra,0x6
    80001872:	b40080e7          	jalr	-1216(ra) # 800073ae <release>
      return -1;
    80001876:	59fd                	li	s3,-1
}
    80001878:	854e                	mv	a0,s3
    8000187a:	60a6                	ld	ra,72(sp)
    8000187c:	6406                	ld	s0,64(sp)
    8000187e:	74e2                	ld	s1,56(sp)
    80001880:	7942                	ld	s2,48(sp)
    80001882:	79a2                	ld	s3,40(sp)
    80001884:	7a02                	ld	s4,32(sp)
    80001886:	6ae2                	ld	s5,24(sp)
    80001888:	6b42                	ld	s6,16(sp)
    8000188a:	6ba2                	ld	s7,8(sp)
    8000188c:	6c02                	ld	s8,0(sp)
    8000188e:	6161                	addi	sp,sp,80
    80001890:	8082                	ret
    sleep(p, &p->lock);  //DOC: wait-sleep
    80001892:	85e2                	mv	a1,s8
    80001894:	854a                	mv	a0,s2
    80001896:	00000097          	auipc	ra,0x0
    8000189a:	e84080e7          	jalr	-380(ra) # 8000171a <sleep>
    havekids = 0;
    8000189e:	bf1d                	j	800017d4 <wait+0x3c>

00000000800018a0 <wakeup>:
{
    800018a0:	7139                	addi	sp,sp,-64
    800018a2:	fc06                	sd	ra,56(sp)
    800018a4:	f822                	sd	s0,48(sp)
    800018a6:	f426                	sd	s1,40(sp)
    800018a8:	f04a                	sd	s2,32(sp)
    800018aa:	ec4e                	sd	s3,24(sp)
    800018ac:	e852                	sd	s4,16(sp)
    800018ae:	e456                	sd	s5,8(sp)
    800018b0:	0080                	addi	s0,sp,64
    800018b2:	8a2a                	mv	s4,a0
  for(p = proc; p < &proc[NPROC]; p++) {
    800018b4:	00009497          	auipc	s1,0x9
    800018b8:	bd448493          	addi	s1,s1,-1068 # 8000a488 <proc>
    if(p->state == SLEEPING && p->chan == chan) {
    800018bc:	4985                	li	s3,1
      p->state = RUNNABLE;
    800018be:	4a89                	li	s5,2
  for(p = proc; p < &proc[NPROC]; p++) {
    800018c0:	0000e917          	auipc	s2,0xe
    800018c4:	5c890913          	addi	s2,s2,1480 # 8000fe88 <tickslock>
    800018c8:	a821                	j	800018e0 <wakeup+0x40>
      p->state = RUNNABLE;
    800018ca:	0154ac23          	sw	s5,24(s1)
    release(&p->lock);
    800018ce:	8526                	mv	a0,s1
    800018d0:	00006097          	auipc	ra,0x6
    800018d4:	ade080e7          	jalr	-1314(ra) # 800073ae <release>
  for(p = proc; p < &proc[NPROC]; p++) {
    800018d8:	16848493          	addi	s1,s1,360
    800018dc:	01248e63          	beq	s1,s2,800018f8 <wakeup+0x58>
    acquire(&p->lock);
    800018e0:	8526                	mv	a0,s1
    800018e2:	00006097          	auipc	ra,0x6
    800018e6:	a18080e7          	jalr	-1512(ra) # 800072fa <acquire>
    if(p->state == SLEEPING && p->chan == chan) {
    800018ea:	4c9c                	lw	a5,24(s1)
    800018ec:	ff3791e3          	bne	a5,s3,800018ce <wakeup+0x2e>
    800018f0:	749c                	ld	a5,40(s1)
    800018f2:	fd479ee3          	bne	a5,s4,800018ce <wakeup+0x2e>
    800018f6:	bfd1                	j	800018ca <wakeup+0x2a>
}
    800018f8:	70e2                	ld	ra,56(sp)
    800018fa:	7442                	ld	s0,48(sp)
    800018fc:	74a2                	ld	s1,40(sp)
    800018fe:	7902                	ld	s2,32(sp)
    80001900:	69e2                	ld	s3,24(sp)
    80001902:	6a42                	ld	s4,16(sp)
    80001904:	6aa2                	ld	s5,8(sp)
    80001906:	6121                	addi	sp,sp,64
    80001908:	8082                	ret

000000008000190a <kill>:
// Kill the process with the given pid.
// The victim won't exit until it tries to return
// to user space (see usertrap() in trap.c).
int
kill(int pid)
{
    8000190a:	7179                	addi	sp,sp,-48
    8000190c:	f406                	sd	ra,40(sp)
    8000190e:	f022                	sd	s0,32(sp)
    80001910:	ec26                	sd	s1,24(sp)
    80001912:	e84a                	sd	s2,16(sp)
    80001914:	e44e                	sd	s3,8(sp)
    80001916:	1800                	addi	s0,sp,48
    80001918:	892a                	mv	s2,a0
  struct proc *p;

  for(p = proc; p < &proc[NPROC]; p++){
    8000191a:	00009497          	auipc	s1,0x9
    8000191e:	b6e48493          	addi	s1,s1,-1170 # 8000a488 <proc>
    80001922:	0000e997          	auipc	s3,0xe
    80001926:	56698993          	addi	s3,s3,1382 # 8000fe88 <tickslock>
    acquire(&p->lock);
    8000192a:	8526                	mv	a0,s1
    8000192c:	00006097          	auipc	ra,0x6
    80001930:	9ce080e7          	jalr	-1586(ra) # 800072fa <acquire>
    if(p->pid == pid){
    80001934:	5c9c                	lw	a5,56(s1)
    80001936:	01278d63          	beq	a5,s2,80001950 <kill+0x46>
        p->state = RUNNABLE;
      }
      release(&p->lock);
      return 0;
    }
    release(&p->lock);
    8000193a:	8526                	mv	a0,s1
    8000193c:	00006097          	auipc	ra,0x6
    80001940:	a72080e7          	jalr	-1422(ra) # 800073ae <release>
  for(p = proc; p < &proc[NPROC]; p++){
    80001944:	16848493          	addi	s1,s1,360
    80001948:	ff3491e3          	bne	s1,s3,8000192a <kill+0x20>
  }
  return -1;
    8000194c:	557d                	li	a0,-1
    8000194e:	a829                	j	80001968 <kill+0x5e>
      p->killed = 1;
    80001950:	4785                	li	a5,1
    80001952:	d89c                	sw	a5,48(s1)
      if(p->state == SLEEPING){
    80001954:	4c98                	lw	a4,24(s1)
    80001956:	4785                	li	a5,1
    80001958:	00f70f63          	beq	a4,a5,80001976 <kill+0x6c>
      release(&p->lock);
    8000195c:	8526                	mv	a0,s1
    8000195e:	00006097          	auipc	ra,0x6
    80001962:	a50080e7          	jalr	-1456(ra) # 800073ae <release>
      return 0;
    80001966:	4501                	li	a0,0
}
    80001968:	70a2                	ld	ra,40(sp)
    8000196a:	7402                	ld	s0,32(sp)
    8000196c:	64e2                	ld	s1,24(sp)
    8000196e:	6942                	ld	s2,16(sp)
    80001970:	69a2                	ld	s3,8(sp)
    80001972:	6145                	addi	sp,sp,48
    80001974:	8082                	ret
        p->state = RUNNABLE;
    80001976:	4789                	li	a5,2
    80001978:	cc9c                	sw	a5,24(s1)
    8000197a:	b7cd                	j	8000195c <kill+0x52>

000000008000197c <either_copyout>:
// Copy to either a user address, or kernel address,
// depending on usr_dst.
// Returns 0 on success, -1 on error.
int
either_copyout(int user_dst, uint64 dst, void *src, uint64 len)
{
    8000197c:	7179                	addi	sp,sp,-48
    8000197e:	f406                	sd	ra,40(sp)
    80001980:	f022                	sd	s0,32(sp)
    80001982:	ec26                	sd	s1,24(sp)
    80001984:	e84a                	sd	s2,16(sp)
    80001986:	e44e                	sd	s3,8(sp)
    80001988:	e052                	sd	s4,0(sp)
    8000198a:	1800                	addi	s0,sp,48
    8000198c:	84aa                	mv	s1,a0
    8000198e:	892e                	mv	s2,a1
    80001990:	89b2                	mv	s3,a2
    80001992:	8a36                	mv	s4,a3
  struct proc *p = myproc();
    80001994:	fffff097          	auipc	ra,0xfffff
    80001998:	56c080e7          	jalr	1388(ra) # 80000f00 <myproc>
  if(user_dst){
    8000199c:	c08d                	beqz	s1,800019be <either_copyout+0x42>
    return copyout(p->pagetable, dst, src, len);
    8000199e:	86d2                	mv	a3,s4
    800019a0:	864e                	mv	a2,s3
    800019a2:	85ca                	mv	a1,s2
    800019a4:	6928                	ld	a0,80(a0)
    800019a6:	fffff097          	auipc	ra,0xfffff
    800019aa:	1d8080e7          	jalr	472(ra) # 80000b7e <copyout>
  } else {
    memmove((char *)dst, src, len);
    return 0;
  }
}
    800019ae:	70a2                	ld	ra,40(sp)
    800019b0:	7402                	ld	s0,32(sp)
    800019b2:	64e2                	ld	s1,24(sp)
    800019b4:	6942                	ld	s2,16(sp)
    800019b6:	69a2                	ld	s3,8(sp)
    800019b8:	6a02                	ld	s4,0(sp)
    800019ba:	6145                	addi	sp,sp,48
    800019bc:	8082                	ret
    memmove((char *)dst, src, len);
    800019be:	000a061b          	sext.w	a2,s4
    800019c2:	85ce                	mv	a1,s3
    800019c4:	854a                	mv	a0,s2
    800019c6:	fffff097          	auipc	ra,0xfffff
    800019ca:	822080e7          	jalr	-2014(ra) # 800001e8 <memmove>
    return 0;
    800019ce:	8526                	mv	a0,s1
    800019d0:	bff9                	j	800019ae <either_copyout+0x32>

00000000800019d2 <either_copyin>:
// Copy from either a user address, or kernel address,
// depending on usr_src.
// Returns 0 on success, -1 on error.
int
either_copyin(void *dst, int user_src, uint64 src, uint64 len)
{
    800019d2:	7179                	addi	sp,sp,-48
    800019d4:	f406                	sd	ra,40(sp)
    800019d6:	f022                	sd	s0,32(sp)
    800019d8:	ec26                	sd	s1,24(sp)
    800019da:	e84a                	sd	s2,16(sp)
    800019dc:	e44e                	sd	s3,8(sp)
    800019de:	e052                	sd	s4,0(sp)
    800019e0:	1800                	addi	s0,sp,48
    800019e2:	892a                	mv	s2,a0
    800019e4:	84ae                	mv	s1,a1
    800019e6:	89b2                	mv	s3,a2
    800019e8:	8a36                	mv	s4,a3
  struct proc *p = myproc();
    800019ea:	fffff097          	auipc	ra,0xfffff
    800019ee:	516080e7          	jalr	1302(ra) # 80000f00 <myproc>
  if(user_src){
    800019f2:	c08d                	beqz	s1,80001a14 <either_copyin+0x42>
    return copyin(p->pagetable, dst, src, len);
    800019f4:	86d2                	mv	a3,s4
    800019f6:	864e                	mv	a2,s3
    800019f8:	85ca                	mv	a1,s2
    800019fa:	6928                	ld	a0,80(a0)
    800019fc:	fffff097          	auipc	ra,0xfffff
    80001a00:	20e080e7          	jalr	526(ra) # 80000c0a <copyin>
  } else {
    memmove(dst, (char*)src, len);
    return 0;
  }
}
    80001a04:	70a2                	ld	ra,40(sp)
    80001a06:	7402                	ld	s0,32(sp)
    80001a08:	64e2                	ld	s1,24(sp)
    80001a0a:	6942                	ld	s2,16(sp)
    80001a0c:	69a2                	ld	s3,8(sp)
    80001a0e:	6a02                	ld	s4,0(sp)
    80001a10:	6145                	addi	sp,sp,48
    80001a12:	8082                	ret
    memmove(dst, (char*)src, len);
    80001a14:	000a061b          	sext.w	a2,s4
    80001a18:	85ce                	mv	a1,s3
    80001a1a:	854a                	mv	a0,s2
    80001a1c:	ffffe097          	auipc	ra,0xffffe
    80001a20:	7cc080e7          	jalr	1996(ra) # 800001e8 <memmove>
    return 0;
    80001a24:	8526                	mv	a0,s1
    80001a26:	bff9                	j	80001a04 <either_copyin+0x32>

0000000080001a28 <procdump>:
// Print a process listing to console.  For debugging.
// Runs when user types ^P on console.
// No lock to avoid wedging a stuck machine further.
void
procdump(void)
{
    80001a28:	715d                	addi	sp,sp,-80
    80001a2a:	e486                	sd	ra,72(sp)
    80001a2c:	e0a2                	sd	s0,64(sp)
    80001a2e:	fc26                	sd	s1,56(sp)
    80001a30:	f84a                	sd	s2,48(sp)
    80001a32:	f44e                	sd	s3,40(sp)
    80001a34:	f052                	sd	s4,32(sp)
    80001a36:	ec56                	sd	s5,24(sp)
    80001a38:	e85a                	sd	s6,16(sp)
    80001a3a:	e45e                	sd	s7,8(sp)
    80001a3c:	0880                	addi	s0,sp,80
  [ZOMBIE]    "zombie"
  };
  struct proc *p;
  char *state;

  printf("\n");
    80001a3e:	00007517          	auipc	a0,0x7
    80001a42:	60a50513          	addi	a0,a0,1546 # 80009048 <etext+0x48>
    80001a46:	00005097          	auipc	ra,0x5
    80001a4a:	392080e7          	jalr	914(ra) # 80006dd8 <printf>
  for(p = proc; p < &proc[NPROC]; p++){
    80001a4e:	00009497          	auipc	s1,0x9
    80001a52:	b9248493          	addi	s1,s1,-1134 # 8000a5e0 <proc+0x158>
    80001a56:	0000e917          	auipc	s2,0xe
    80001a5a:	58a90913          	addi	s2,s2,1418 # 8000ffe0 <bcache+0x140>
    if(p->state == UNUSED)
      continue;
    if(p->state >= 0 && p->state < NELEM(states) && states[p->state])
    80001a5e:	4b11                	li	s6,4
      state = states[p->state];
    else
      state = "???";
    80001a60:	00007997          	auipc	s3,0x7
    80001a64:	7b898993          	addi	s3,s3,1976 # 80009218 <states.1780+0xc8>
    printf("%d %s %s", p->pid, state, p->name);
    80001a68:	00007a97          	auipc	s5,0x7
    80001a6c:	7b8a8a93          	addi	s5,s5,1976 # 80009220 <states.1780+0xd0>
    printf("\n");
    80001a70:	00007a17          	auipc	s4,0x7
    80001a74:	5d8a0a13          	addi	s4,s4,1496 # 80009048 <etext+0x48>
    if(p->state >= 0 && p->state < NELEM(states) && states[p->state])
    80001a78:	00007b97          	auipc	s7,0x7
    80001a7c:	6d8b8b93          	addi	s7,s7,1752 # 80009150 <states.1780>
    80001a80:	a015                	j	80001aa4 <procdump+0x7c>
    printf("%d %s %s", p->pid, state, p->name);
    80001a82:	86ba                	mv	a3,a4
    80001a84:	ee072583          	lw	a1,-288(a4)
    80001a88:	8556                	mv	a0,s5
    80001a8a:	00005097          	auipc	ra,0x5
    80001a8e:	34e080e7          	jalr	846(ra) # 80006dd8 <printf>
    printf("\n");
    80001a92:	8552                	mv	a0,s4
    80001a94:	00005097          	auipc	ra,0x5
    80001a98:	344080e7          	jalr	836(ra) # 80006dd8 <printf>
  for(p = proc; p < &proc[NPROC]; p++){
    80001a9c:	16848493          	addi	s1,s1,360
    80001aa0:	03248163          	beq	s1,s2,80001ac2 <procdump+0x9a>
    if(p->state == UNUSED)
    80001aa4:	8726                	mv	a4,s1
    80001aa6:	ec04a783          	lw	a5,-320(s1)
    80001aaa:	dbed                	beqz	a5,80001a9c <procdump+0x74>
      state = "???";
    80001aac:	864e                	mv	a2,s3
    if(p->state >= 0 && p->state < NELEM(states) && states[p->state])
    80001aae:	fcfb6ae3          	bltu	s6,a5,80001a82 <procdump+0x5a>
    80001ab2:	1782                	slli	a5,a5,0x20
    80001ab4:	9381                	srli	a5,a5,0x20
    80001ab6:	078e                	slli	a5,a5,0x3
    80001ab8:	97de                	add	a5,a5,s7
    80001aba:	6390                	ld	a2,0(a5)
    80001abc:	f279                	bnez	a2,80001a82 <procdump+0x5a>
      state = "???";
    80001abe:	864e                	mv	a2,s3
    80001ac0:	b7c9                	j	80001a82 <procdump+0x5a>
  }
}
    80001ac2:	60a6                	ld	ra,72(sp)
    80001ac4:	6406                	ld	s0,64(sp)
    80001ac6:	74e2                	ld	s1,56(sp)
    80001ac8:	7942                	ld	s2,48(sp)
    80001aca:	79a2                	ld	s3,40(sp)
    80001acc:	7a02                	ld	s4,32(sp)
    80001ace:	6ae2                	ld	s5,24(sp)
    80001ad0:	6b42                	ld	s6,16(sp)
    80001ad2:	6ba2                	ld	s7,8(sp)
    80001ad4:	6161                	addi	sp,sp,80
    80001ad6:	8082                	ret

0000000080001ad8 <swtch>:
    80001ad8:	00153023          	sd	ra,0(a0)
    80001adc:	00253423          	sd	sp,8(a0)
    80001ae0:	e900                	sd	s0,16(a0)
    80001ae2:	ed04                	sd	s1,24(a0)
    80001ae4:	03253023          	sd	s2,32(a0)
    80001ae8:	03353423          	sd	s3,40(a0)
    80001aec:	03453823          	sd	s4,48(a0)
    80001af0:	03553c23          	sd	s5,56(a0)
    80001af4:	05653023          	sd	s6,64(a0)
    80001af8:	05753423          	sd	s7,72(a0)
    80001afc:	05853823          	sd	s8,80(a0)
    80001b00:	05953c23          	sd	s9,88(a0)
    80001b04:	07a53023          	sd	s10,96(a0)
    80001b08:	07b53423          	sd	s11,104(a0)
    80001b0c:	0005b083          	ld	ra,0(a1)
    80001b10:	0085b103          	ld	sp,8(a1)
    80001b14:	6980                	ld	s0,16(a1)
    80001b16:	6d84                	ld	s1,24(a1)
    80001b18:	0205b903          	ld	s2,32(a1)
    80001b1c:	0285b983          	ld	s3,40(a1)
    80001b20:	0305ba03          	ld	s4,48(a1)
    80001b24:	0385ba83          	ld	s5,56(a1)
    80001b28:	0405bb03          	ld	s6,64(a1)
    80001b2c:	0485bb83          	ld	s7,72(a1)
    80001b30:	0505bc03          	ld	s8,80(a1)
    80001b34:	0585bc83          	ld	s9,88(a1)
    80001b38:	0605bd03          	ld	s10,96(a1)
    80001b3c:	0685bd83          	ld	s11,104(a1)
    80001b40:	8082                	ret

0000000080001b42 <trapinit>:

extern int devintr();

void
trapinit(void)
{
    80001b42:	1141                	addi	sp,sp,-16
    80001b44:	e406                	sd	ra,8(sp)
    80001b46:	e022                	sd	s0,0(sp)
    80001b48:	0800                	addi	s0,sp,16
  initlock(&tickslock, "time");
    80001b4a:	00007597          	auipc	a1,0x7
    80001b4e:	70e58593          	addi	a1,a1,1806 # 80009258 <states.1780+0x108>
    80001b52:	0000e517          	auipc	a0,0xe
    80001b56:	33650513          	addi	a0,a0,822 # 8000fe88 <tickslock>
    80001b5a:	00005097          	auipc	ra,0x5
    80001b5e:	710080e7          	jalr	1808(ra) # 8000726a <initlock>
}
    80001b62:	60a2                	ld	ra,8(sp)
    80001b64:	6402                	ld	s0,0(sp)
    80001b66:	0141                	addi	sp,sp,16
    80001b68:	8082                	ret

0000000080001b6a <trapinithart>:

// set up to take exceptions and traps while in the kernel.
void
trapinithart(void)
{
    80001b6a:	1141                	addi	sp,sp,-16
    80001b6c:	e422                	sd	s0,8(sp)
    80001b6e:	0800                	addi	s0,sp,16
  asm volatile("csrw stvec, %0" : : "r" (x));
    80001b70:	00003797          	auipc	a5,0x3
    80001b74:	67078793          	addi	a5,a5,1648 # 800051e0 <kernelvec>
    80001b78:	10579073          	csrw	stvec,a5
  w_stvec((uint64)kernelvec);
}
    80001b7c:	6422                	ld	s0,8(sp)
    80001b7e:	0141                	addi	sp,sp,16
    80001b80:	8082                	ret

0000000080001b82 <usertrapret>:
//
// return to user space
//
void
usertrapret(void)
{
    80001b82:	1141                	addi	sp,sp,-16
    80001b84:	e406                	sd	ra,8(sp)
    80001b86:	e022                	sd	s0,0(sp)
    80001b88:	0800                	addi	s0,sp,16
  struct proc *p = myproc();
    80001b8a:	fffff097          	auipc	ra,0xfffff
    80001b8e:	376080e7          	jalr	886(ra) # 80000f00 <myproc>
  asm volatile("csrr %0, sstatus" : "=r" (x) );
    80001b92:	100027f3          	csrr	a5,sstatus
  w_sstatus(r_sstatus() & ~SSTATUS_SIE);
    80001b96:	9bf5                	andi	a5,a5,-3
  asm volatile("csrw sstatus, %0" : : "r" (x));
    80001b98:	10079073          	csrw	sstatus,a5
  // kerneltrap() to usertrap(), so turn off interrupts until
  // we're back in user space, where usertrap() is correct.
  intr_off();

  // send syscalls, interrupts, and exceptions to trampoline.S
  w_stvec(TRAMPOLINE + (uservec - trampoline));
    80001b9c:	00006617          	auipc	a2,0x6
    80001ba0:	46460613          	addi	a2,a2,1124 # 80008000 <_trampoline>
    80001ba4:	00006697          	auipc	a3,0x6
    80001ba8:	45c68693          	addi	a3,a3,1116 # 80008000 <_trampoline>
    80001bac:	8e91                	sub	a3,a3,a2
    80001bae:	040007b7          	lui	a5,0x4000
    80001bb2:	17fd                	addi	a5,a5,-1
    80001bb4:	07b2                	slli	a5,a5,0xc
    80001bb6:	96be                	add	a3,a3,a5
  asm volatile("csrw stvec, %0" : : "r" (x));
    80001bb8:	10569073          	csrw	stvec,a3

  // set up trapframe values that uservec will need when
  // the process next re-enters the kernel.
  p->trapframe->kernel_satp = r_satp();         // kernel page table
    80001bbc:	6d38                	ld	a4,88(a0)
  asm volatile("csrr %0, satp" : "=r" (x) );
    80001bbe:	180026f3          	csrr	a3,satp
    80001bc2:	e314                	sd	a3,0(a4)
  p->trapframe->kernel_sp = p->kstack + PGSIZE; // process's kernel stack
    80001bc4:	6d38                	ld	a4,88(a0)
    80001bc6:	6134                	ld	a3,64(a0)
    80001bc8:	6585                	lui	a1,0x1
    80001bca:	96ae                	add	a3,a3,a1
    80001bcc:	e714                	sd	a3,8(a4)
  p->trapframe->kernel_trap = (uint64)usertrap;
    80001bce:	6d38                	ld	a4,88(a0)
    80001bd0:	00000697          	auipc	a3,0x0
    80001bd4:	14a68693          	addi	a3,a3,330 # 80001d1a <usertrap>
    80001bd8:	eb14                	sd	a3,16(a4)
  p->trapframe->kernel_hartid = r_tp();         // hartid for cpuid()
    80001bda:	6d38                	ld	a4,88(a0)
  asm volatile("mv %0, tp" : "=r" (x) );
    80001bdc:	8692                	mv	a3,tp
    80001bde:	f314                	sd	a3,32(a4)
  asm volatile("csrr %0, sstatus" : "=r" (x) );
    80001be0:	100026f3          	csrr	a3,sstatus
  // set up the registers that trampoline.S's sret will use
  // to get to user space.
  
  // set S Previous Privilege mode to User.
  unsigned long x = r_sstatus();
  x &= ~SSTATUS_SPP; // clear SPP to 0 for user mode
    80001be4:	eff6f693          	andi	a3,a3,-257
  x |= SSTATUS_SPIE; // enable interrupts in user mode
    80001be8:	0206e693          	ori	a3,a3,32
  asm volatile("csrw sstatus, %0" : : "r" (x));
    80001bec:	10069073          	csrw	sstatus,a3
  w_sstatus(x);

  // set S Exception Program Counter to the saved user pc.
  w_sepc(p->trapframe->epc);
    80001bf0:	6d38                	ld	a4,88(a0)
  asm volatile("csrw sepc, %0" : : "r" (x));
    80001bf2:	6f18                	ld	a4,24(a4)
    80001bf4:	14171073          	csrw	sepc,a4

  // tell trampoline.S the user page table to switch to.
  uint64 satp = MAKE_SATP(p->pagetable);
    80001bf8:	692c                	ld	a1,80(a0)
    80001bfa:	81b1                	srli	a1,a1,0xc

  // jump to trampoline.S at the top of memory, which 
  // switches to the user page table, restores user registers,
  // and switches to user mode with sret.
  uint64 fn = TRAMPOLINE + (userret - trampoline);
    80001bfc:	00006717          	auipc	a4,0x6
    80001c00:	49470713          	addi	a4,a4,1172 # 80008090 <userret>
    80001c04:	8f11                	sub	a4,a4,a2
    80001c06:	97ba                	add	a5,a5,a4
  ((void (*)(uint64,uint64))fn)(TRAPFRAME, satp);
    80001c08:	577d                	li	a4,-1
    80001c0a:	177e                	slli	a4,a4,0x3f
    80001c0c:	8dd9                	or	a1,a1,a4
    80001c0e:	02000537          	lui	a0,0x2000
    80001c12:	157d                	addi	a0,a0,-1
    80001c14:	0536                	slli	a0,a0,0xd
    80001c16:	9782                	jalr	a5
}
    80001c18:	60a2                	ld	ra,8(sp)
    80001c1a:	6402                	ld	s0,0(sp)
    80001c1c:	0141                	addi	sp,sp,16
    80001c1e:	8082                	ret

0000000080001c20 <clockintr>:
  w_sstatus(sstatus);
}

void
clockintr()
{
    80001c20:	1101                	addi	sp,sp,-32
    80001c22:	ec06                	sd	ra,24(sp)
    80001c24:	e822                	sd	s0,16(sp)
    80001c26:	e426                	sd	s1,8(sp)
    80001c28:	1000                	addi	s0,sp,32
  acquire(&tickslock);
    80001c2a:	0000e497          	auipc	s1,0xe
    80001c2e:	25e48493          	addi	s1,s1,606 # 8000fe88 <tickslock>
    80001c32:	8526                	mv	a0,s1
    80001c34:	00005097          	auipc	ra,0x5
    80001c38:	6c6080e7          	jalr	1734(ra) # 800072fa <acquire>
  ticks++;
    80001c3c:	00008517          	auipc	a0,0x8
    80001c40:	3dc50513          	addi	a0,a0,988 # 8000a018 <ticks>
    80001c44:	411c                	lw	a5,0(a0)
    80001c46:	2785                	addiw	a5,a5,1
    80001c48:	c11c                	sw	a5,0(a0)
  wakeup(&ticks);
    80001c4a:	00000097          	auipc	ra,0x0
    80001c4e:	c56080e7          	jalr	-938(ra) # 800018a0 <wakeup>
  release(&tickslock);
    80001c52:	8526                	mv	a0,s1
    80001c54:	00005097          	auipc	ra,0x5
    80001c58:	75a080e7          	jalr	1882(ra) # 800073ae <release>
}
    80001c5c:	60e2                	ld	ra,24(sp)
    80001c5e:	6442                	ld	s0,16(sp)
    80001c60:	64a2                	ld	s1,8(sp)
    80001c62:	6105                	addi	sp,sp,32
    80001c64:	8082                	ret

0000000080001c66 <devintr>:
// returns 2 if timer interrupt,
// 1 if other device,
// 0 if not recognized.
int
devintr()
{
    80001c66:	1101                	addi	sp,sp,-32
    80001c68:	ec06                	sd	ra,24(sp)
    80001c6a:	e822                	sd	s0,16(sp)
    80001c6c:	e426                	sd	s1,8(sp)
    80001c6e:	1000                	addi	s0,sp,32
  asm volatile("csrr %0, scause" : "=r" (x) );
    80001c70:	14202773          	csrr	a4,scause
  uint64 scause = r_scause();

  if((scause & 0x8000000000000000L) &&
    80001c74:	00074d63          	bltz	a4,80001c8e <devintr+0x28>
    // now allowed to interrupt again.
    if(irq)
      plic_complete(irq);

    return 1;
  } else if(scause == 0x8000000000000001L){
    80001c78:	57fd                	li	a5,-1
    80001c7a:	17fe                	slli	a5,a5,0x3f
    80001c7c:	0785                	addi	a5,a5,1
    // the SSIP bit in sip.
    w_sip(r_sip() & ~2);

    return 2;
  } else {
    return 0;
    80001c7e:	4501                	li	a0,0
  } else if(scause == 0x8000000000000001L){
    80001c80:	06f70c63          	beq	a4,a5,80001cf8 <devintr+0x92>
  }
}
    80001c84:	60e2                	ld	ra,24(sp)
    80001c86:	6442                	ld	s0,16(sp)
    80001c88:	64a2                	ld	s1,8(sp)
    80001c8a:	6105                	addi	sp,sp,32
    80001c8c:	8082                	ret
     (scause & 0xff) == 9){
    80001c8e:	0ff77793          	andi	a5,a4,255
  if((scause & 0x8000000000000000L) &&
    80001c92:	46a5                	li	a3,9
    80001c94:	fed792e3          	bne	a5,a3,80001c78 <devintr+0x12>
    int irq = plic_claim();
    80001c98:	00003097          	auipc	ra,0x3
    80001c9c:	66a080e7          	jalr	1642(ra) # 80005302 <plic_claim>
    80001ca0:	84aa                	mv	s1,a0
    if(irq == UART0_IRQ){
    80001ca2:	47a9                	li	a5,10
    80001ca4:	02f50563          	beq	a0,a5,80001cce <devintr+0x68>
    } else if(irq == VIRTIO0_IRQ){
    80001ca8:	4785                	li	a5,1
    80001caa:	02f50d63          	beq	a0,a5,80001ce4 <devintr+0x7e>
    else if(irq == E1000_IRQ){
    80001cae:	02100793          	li	a5,33
    80001cb2:	02f50e63          	beq	a0,a5,80001cee <devintr+0x88>
    return 1;
    80001cb6:	4505                	li	a0,1
    else if(irq){
    80001cb8:	d4f1                	beqz	s1,80001c84 <devintr+0x1e>
      printf("unexpected interrupt irq=%d\n", irq);
    80001cba:	85a6                	mv	a1,s1
    80001cbc:	00007517          	auipc	a0,0x7
    80001cc0:	5a450513          	addi	a0,a0,1444 # 80009260 <states.1780+0x110>
    80001cc4:	00005097          	auipc	ra,0x5
    80001cc8:	114080e7          	jalr	276(ra) # 80006dd8 <printf>
    80001ccc:	a029                	j	80001cd6 <devintr+0x70>
      uartintr();
    80001cce:	00005097          	auipc	ra,0x5
    80001cd2:	54c080e7          	jalr	1356(ra) # 8000721a <uartintr>
      plic_complete(irq);
    80001cd6:	8526                	mv	a0,s1
    80001cd8:	00003097          	auipc	ra,0x3
    80001cdc:	64e080e7          	jalr	1614(ra) # 80005326 <plic_complete>
    return 1;
    80001ce0:	4505                	li	a0,1
    80001ce2:	b74d                	j	80001c84 <devintr+0x1e>
      virtio_disk_intr();
    80001ce4:	00004097          	auipc	ra,0x4
    80001ce8:	b40080e7          	jalr	-1216(ra) # 80005824 <virtio_disk_intr>
    80001cec:	b7ed                	j	80001cd6 <devintr+0x70>
      e1000_intr();
    80001cee:	00004097          	auipc	ra,0x4
    80001cf2:	e84080e7          	jalr	-380(ra) # 80005b72 <e1000_intr>
    80001cf6:	b7c5                	j	80001cd6 <devintr+0x70>
    if(cpuid() == 0){
    80001cf8:	fffff097          	auipc	ra,0xfffff
    80001cfc:	1dc080e7          	jalr	476(ra) # 80000ed4 <cpuid>
    80001d00:	c901                	beqz	a0,80001d10 <devintr+0xaa>
  asm volatile("csrr %0, sip" : "=r" (x) );
    80001d02:	144027f3          	csrr	a5,sip
    w_sip(r_sip() & ~2);
    80001d06:	9bf5                	andi	a5,a5,-3
  asm volatile("csrw sip, %0" : : "r" (x));
    80001d08:	14479073          	csrw	sip,a5
    return 2;
    80001d0c:	4509                	li	a0,2
    80001d0e:	bf9d                	j	80001c84 <devintr+0x1e>
      clockintr();
    80001d10:	00000097          	auipc	ra,0x0
    80001d14:	f10080e7          	jalr	-240(ra) # 80001c20 <clockintr>
    80001d18:	b7ed                	j	80001d02 <devintr+0x9c>

0000000080001d1a <usertrap>:
{
    80001d1a:	1101                	addi	sp,sp,-32
    80001d1c:	ec06                	sd	ra,24(sp)
    80001d1e:	e822                	sd	s0,16(sp)
    80001d20:	e426                	sd	s1,8(sp)
    80001d22:	e04a                	sd	s2,0(sp)
    80001d24:	1000                	addi	s0,sp,32
  asm volatile("csrr %0, sstatus" : "=r" (x) );
    80001d26:	100027f3          	csrr	a5,sstatus
  if((r_sstatus() & SSTATUS_SPP) != 0)
    80001d2a:	1007f793          	andi	a5,a5,256
    80001d2e:	e3b9                	bnez	a5,80001d74 <usertrap+0x5a>
  asm volatile("csrw stvec, %0" : : "r" (x));
    80001d30:	00003797          	auipc	a5,0x3
    80001d34:	4b078793          	addi	a5,a5,1200 # 800051e0 <kernelvec>
    80001d38:	10579073          	csrw	stvec,a5
  struct proc *p = myproc();
    80001d3c:	fffff097          	auipc	ra,0xfffff
    80001d40:	1c4080e7          	jalr	452(ra) # 80000f00 <myproc>
    80001d44:	84aa                	mv	s1,a0
  p->trapframe->epc = r_sepc();
    80001d46:	6d3c                	ld	a5,88(a0)
  asm volatile("csrr %0, sepc" : "=r" (x) );
    80001d48:	14102773          	csrr	a4,sepc
    80001d4c:	ef98                	sd	a4,24(a5)
  asm volatile("csrr %0, scause" : "=r" (x) );
    80001d4e:	14202773          	csrr	a4,scause
  if(r_scause() == 8){
    80001d52:	47a1                	li	a5,8
    80001d54:	02f70863          	beq	a4,a5,80001d84 <usertrap+0x6a>
  } else if((which_dev = devintr()) != 0){
    80001d58:	00000097          	auipc	ra,0x0
    80001d5c:	f0e080e7          	jalr	-242(ra) # 80001c66 <devintr>
    80001d60:	892a                	mv	s2,a0
    80001d62:	c551                	beqz	a0,80001dee <usertrap+0xd4>
  if(lockfree_read4(&p->killed))
    80001d64:	03048513          	addi	a0,s1,48
    80001d68:	00005097          	auipc	ra,0x5
    80001d6c:	6a4080e7          	jalr	1700(ra) # 8000740c <lockfree_read4>
    80001d70:	cd21                	beqz	a0,80001dc8 <usertrap+0xae>
    80001d72:	a0b1                	j	80001dbe <usertrap+0xa4>
    panic("usertrap: not from user mode");
    80001d74:	00007517          	auipc	a0,0x7
    80001d78:	50c50513          	addi	a0,a0,1292 # 80009280 <states.1780+0x130>
    80001d7c:	00005097          	auipc	ra,0x5
    80001d80:	012080e7          	jalr	18(ra) # 80006d8e <panic>
    if(lockfree_read4(&p->killed))
    80001d84:	03050513          	addi	a0,a0,48
    80001d88:	00005097          	auipc	ra,0x5
    80001d8c:	684080e7          	jalr	1668(ra) # 8000740c <lockfree_read4>
    80001d90:	e929                	bnez	a0,80001de2 <usertrap+0xc8>
    p->trapframe->epc += 4;
    80001d92:	6cb8                	ld	a4,88(s1)
    80001d94:	6f1c                	ld	a5,24(a4)
    80001d96:	0791                	addi	a5,a5,4
    80001d98:	ef1c                	sd	a5,24(a4)
  asm volatile("csrr %0, sstatus" : "=r" (x) );
    80001d9a:	100027f3          	csrr	a5,sstatus
  w_sstatus(r_sstatus() | SSTATUS_SIE);
    80001d9e:	0027e793          	ori	a5,a5,2
  asm volatile("csrw sstatus, %0" : : "r" (x));
    80001da2:	10079073          	csrw	sstatus,a5
    syscall();
    80001da6:	00000097          	auipc	ra,0x0
    80001daa:	2ce080e7          	jalr	718(ra) # 80002074 <syscall>
  if(lockfree_read4(&p->killed))
    80001dae:	03048513          	addi	a0,s1,48
    80001db2:	00005097          	auipc	ra,0x5
    80001db6:	65a080e7          	jalr	1626(ra) # 8000740c <lockfree_read4>
    80001dba:	c911                	beqz	a0,80001dce <usertrap+0xb4>
    80001dbc:	4901                	li	s2,0
    exit(-1);
    80001dbe:	557d                	li	a0,-1
    80001dc0:	00000097          	auipc	ra,0x0
    80001dc4:	812080e7          	jalr	-2030(ra) # 800015d2 <exit>
  if(which_dev == 2)
    80001dc8:	4789                	li	a5,2
    80001dca:	04f90c63          	beq	s2,a5,80001e22 <usertrap+0x108>
  usertrapret();
    80001dce:	00000097          	auipc	ra,0x0
    80001dd2:	db4080e7          	jalr	-588(ra) # 80001b82 <usertrapret>
}
    80001dd6:	60e2                	ld	ra,24(sp)
    80001dd8:	6442                	ld	s0,16(sp)
    80001dda:	64a2                	ld	s1,8(sp)
    80001ddc:	6902                	ld	s2,0(sp)
    80001dde:	6105                	addi	sp,sp,32
    80001de0:	8082                	ret
      exit(-1);
    80001de2:	557d                	li	a0,-1
    80001de4:	fffff097          	auipc	ra,0xfffff
    80001de8:	7ee080e7          	jalr	2030(ra) # 800015d2 <exit>
    80001dec:	b75d                	j	80001d92 <usertrap+0x78>
  asm volatile("csrr %0, scause" : "=r" (x) );
    80001dee:	142025f3          	csrr	a1,scause
    printf("usertrap(): unexpected scause %p pid=%d\n", r_scause(), p->pid);
    80001df2:	5c90                	lw	a2,56(s1)
    80001df4:	00007517          	auipc	a0,0x7
    80001df8:	4ac50513          	addi	a0,a0,1196 # 800092a0 <states.1780+0x150>
    80001dfc:	00005097          	auipc	ra,0x5
    80001e00:	fdc080e7          	jalr	-36(ra) # 80006dd8 <printf>
  asm volatile("csrr %0, sepc" : "=r" (x) );
    80001e04:	141025f3          	csrr	a1,sepc
  asm volatile("csrr %0, stval" : "=r" (x) );
    80001e08:	14302673          	csrr	a2,stval
    printf("            sepc=%p stval=%p\n", r_sepc(), r_stval());
    80001e0c:	00007517          	auipc	a0,0x7
    80001e10:	4c450513          	addi	a0,a0,1220 # 800092d0 <states.1780+0x180>
    80001e14:	00005097          	auipc	ra,0x5
    80001e18:	fc4080e7          	jalr	-60(ra) # 80006dd8 <printf>
    p->killed = 1;
    80001e1c:	4785                	li	a5,1
    80001e1e:	d89c                	sw	a5,48(s1)
    80001e20:	b779                	j	80001dae <usertrap+0x94>
    yield();
    80001e22:	00000097          	auipc	ra,0x0
    80001e26:	8bc080e7          	jalr	-1860(ra) # 800016de <yield>
    80001e2a:	b755                	j	80001dce <usertrap+0xb4>

0000000080001e2c <kerneltrap>:
{
    80001e2c:	7179                	addi	sp,sp,-48
    80001e2e:	f406                	sd	ra,40(sp)
    80001e30:	f022                	sd	s0,32(sp)
    80001e32:	ec26                	sd	s1,24(sp)
    80001e34:	e84a                	sd	s2,16(sp)
    80001e36:	e44e                	sd	s3,8(sp)
    80001e38:	1800                	addi	s0,sp,48
  asm volatile("csrr %0, sepc" : "=r" (x) );
    80001e3a:	14102973          	csrr	s2,sepc
  asm volatile("csrr %0, sstatus" : "=r" (x) );
    80001e3e:	100024f3          	csrr	s1,sstatus
  asm volatile("csrr %0, scause" : "=r" (x) );
    80001e42:	142029f3          	csrr	s3,scause
  if((sstatus & SSTATUS_SPP) == 0)
    80001e46:	1004f793          	andi	a5,s1,256
    80001e4a:	cb85                	beqz	a5,80001e7a <kerneltrap+0x4e>
  asm volatile("csrr %0, sstatus" : "=r" (x) );
    80001e4c:	100027f3          	csrr	a5,sstatus
  return (x & SSTATUS_SIE) != 0;
    80001e50:	8b89                	andi	a5,a5,2
  if(intr_get() != 0)
    80001e52:	ef85                	bnez	a5,80001e8a <kerneltrap+0x5e>
  if((which_dev = devintr()) == 0){
    80001e54:	00000097          	auipc	ra,0x0
    80001e58:	e12080e7          	jalr	-494(ra) # 80001c66 <devintr>
    80001e5c:	cd1d                	beqz	a0,80001e9a <kerneltrap+0x6e>
  if(which_dev == 2 && myproc() != 0 && myproc()->state == RUNNING)
    80001e5e:	4789                	li	a5,2
    80001e60:	06f50a63          	beq	a0,a5,80001ed4 <kerneltrap+0xa8>
  asm volatile("csrw sepc, %0" : : "r" (x));
    80001e64:	14191073          	csrw	sepc,s2
  asm volatile("csrw sstatus, %0" : : "r" (x));
    80001e68:	10049073          	csrw	sstatus,s1
}
    80001e6c:	70a2                	ld	ra,40(sp)
    80001e6e:	7402                	ld	s0,32(sp)
    80001e70:	64e2                	ld	s1,24(sp)
    80001e72:	6942                	ld	s2,16(sp)
    80001e74:	69a2                	ld	s3,8(sp)
    80001e76:	6145                	addi	sp,sp,48
    80001e78:	8082                	ret
    panic("kerneltrap: not from supervisor mode");
    80001e7a:	00007517          	auipc	a0,0x7
    80001e7e:	47650513          	addi	a0,a0,1142 # 800092f0 <states.1780+0x1a0>
    80001e82:	00005097          	auipc	ra,0x5
    80001e86:	f0c080e7          	jalr	-244(ra) # 80006d8e <panic>
    panic("kerneltrap: interrupts enabled");
    80001e8a:	00007517          	auipc	a0,0x7
    80001e8e:	48e50513          	addi	a0,a0,1166 # 80009318 <states.1780+0x1c8>
    80001e92:	00005097          	auipc	ra,0x5
    80001e96:	efc080e7          	jalr	-260(ra) # 80006d8e <panic>
    printf("scause %p\n", scause);
    80001e9a:	85ce                	mv	a1,s3
    80001e9c:	00007517          	auipc	a0,0x7
    80001ea0:	49c50513          	addi	a0,a0,1180 # 80009338 <states.1780+0x1e8>
    80001ea4:	00005097          	auipc	ra,0x5
    80001ea8:	f34080e7          	jalr	-204(ra) # 80006dd8 <printf>
  asm volatile("csrr %0, sepc" : "=r" (x) );
    80001eac:	141025f3          	csrr	a1,sepc
  asm volatile("csrr %0, stval" : "=r" (x) );
    80001eb0:	14302673          	csrr	a2,stval
    printf("sepc=%p stval=%p\n", r_sepc(), r_stval());
    80001eb4:	00007517          	auipc	a0,0x7
    80001eb8:	49450513          	addi	a0,a0,1172 # 80009348 <states.1780+0x1f8>
    80001ebc:	00005097          	auipc	ra,0x5
    80001ec0:	f1c080e7          	jalr	-228(ra) # 80006dd8 <printf>
    panic("kerneltrap");
    80001ec4:	00007517          	auipc	a0,0x7
    80001ec8:	49c50513          	addi	a0,a0,1180 # 80009360 <states.1780+0x210>
    80001ecc:	00005097          	auipc	ra,0x5
    80001ed0:	ec2080e7          	jalr	-318(ra) # 80006d8e <panic>
  if(which_dev == 2 && myproc() != 0 && myproc()->state == RUNNING)
    80001ed4:	fffff097          	auipc	ra,0xfffff
    80001ed8:	02c080e7          	jalr	44(ra) # 80000f00 <myproc>
    80001edc:	d541                	beqz	a0,80001e64 <kerneltrap+0x38>
    80001ede:	fffff097          	auipc	ra,0xfffff
    80001ee2:	022080e7          	jalr	34(ra) # 80000f00 <myproc>
    80001ee6:	4d18                	lw	a4,24(a0)
    80001ee8:	478d                	li	a5,3
    80001eea:	f6f71de3          	bne	a4,a5,80001e64 <kerneltrap+0x38>
    yield();
    80001eee:	fffff097          	auipc	ra,0xfffff
    80001ef2:	7f0080e7          	jalr	2032(ra) # 800016de <yield>
    80001ef6:	b7bd                	j	80001e64 <kerneltrap+0x38>

0000000080001ef8 <argraw>:
  return strlen(buf);
}

static uint64
argraw(int n)
{
    80001ef8:	1101                	addi	sp,sp,-32
    80001efa:	ec06                	sd	ra,24(sp)
    80001efc:	e822                	sd	s0,16(sp)
    80001efe:	e426                	sd	s1,8(sp)
    80001f00:	1000                	addi	s0,sp,32
    80001f02:	84aa                	mv	s1,a0
  struct proc *p = myproc();
    80001f04:	fffff097          	auipc	ra,0xfffff
    80001f08:	ffc080e7          	jalr	-4(ra) # 80000f00 <myproc>
  switch (n) {
    80001f0c:	4795                	li	a5,5
    80001f0e:	0497e363          	bltu	a5,s1,80001f54 <argraw+0x5c>
    80001f12:	1482                	slli	s1,s1,0x20
    80001f14:	9081                	srli	s1,s1,0x20
    80001f16:	048a                	slli	s1,s1,0x2
    80001f18:	00007717          	auipc	a4,0x7
    80001f1c:	45870713          	addi	a4,a4,1112 # 80009370 <states.1780+0x220>
    80001f20:	94ba                	add	s1,s1,a4
    80001f22:	409c                	lw	a5,0(s1)
    80001f24:	97ba                	add	a5,a5,a4
    80001f26:	8782                	jr	a5
  case 0:
    return p->trapframe->a0;
    80001f28:	6d3c                	ld	a5,88(a0)
    80001f2a:	7ba8                	ld	a0,112(a5)
  case 5:
    return p->trapframe->a5;
  }
  panic("argraw");
  return -1;
}
    80001f2c:	60e2                	ld	ra,24(sp)
    80001f2e:	6442                	ld	s0,16(sp)
    80001f30:	64a2                	ld	s1,8(sp)
    80001f32:	6105                	addi	sp,sp,32
    80001f34:	8082                	ret
    return p->trapframe->a1;
    80001f36:	6d3c                	ld	a5,88(a0)
    80001f38:	7fa8                	ld	a0,120(a5)
    80001f3a:	bfcd                	j	80001f2c <argraw+0x34>
    return p->trapframe->a2;
    80001f3c:	6d3c                	ld	a5,88(a0)
    80001f3e:	63c8                	ld	a0,128(a5)
    80001f40:	b7f5                	j	80001f2c <argraw+0x34>
    return p->trapframe->a3;
    80001f42:	6d3c                	ld	a5,88(a0)
    80001f44:	67c8                	ld	a0,136(a5)
    80001f46:	b7dd                	j	80001f2c <argraw+0x34>
    return p->trapframe->a4;
    80001f48:	6d3c                	ld	a5,88(a0)
    80001f4a:	6bc8                	ld	a0,144(a5)
    80001f4c:	b7c5                	j	80001f2c <argraw+0x34>
    return p->trapframe->a5;
    80001f4e:	6d3c                	ld	a5,88(a0)
    80001f50:	6fc8                	ld	a0,152(a5)
    80001f52:	bfe9                	j	80001f2c <argraw+0x34>
  panic("argraw");
    80001f54:	00007517          	auipc	a0,0x7
    80001f58:	52450513          	addi	a0,a0,1316 # 80009478 <syscalls+0xf0>
    80001f5c:	00005097          	auipc	ra,0x5
    80001f60:	e32080e7          	jalr	-462(ra) # 80006d8e <panic>

0000000080001f64 <fetchaddr>:
{
    80001f64:	1101                	addi	sp,sp,-32
    80001f66:	ec06                	sd	ra,24(sp)
    80001f68:	e822                	sd	s0,16(sp)
    80001f6a:	e426                	sd	s1,8(sp)
    80001f6c:	e04a                	sd	s2,0(sp)
    80001f6e:	1000                	addi	s0,sp,32
    80001f70:	84aa                	mv	s1,a0
    80001f72:	892e                	mv	s2,a1
  struct proc *p = myproc();
    80001f74:	fffff097          	auipc	ra,0xfffff
    80001f78:	f8c080e7          	jalr	-116(ra) # 80000f00 <myproc>
  if(addr >= p->sz || addr+sizeof(uint64) > p->sz)
    80001f7c:	653c                	ld	a5,72(a0)
    80001f7e:	02f4f963          	bleu	a5,s1,80001fb0 <fetchaddr+0x4c>
    80001f82:	00848713          	addi	a4,s1,8
    80001f86:	02e7e763          	bltu	a5,a4,80001fb4 <fetchaddr+0x50>
  if(copyin(p->pagetable, (char *)ip, addr, sizeof(*ip)) != 0)
    80001f8a:	46a1                	li	a3,8
    80001f8c:	8626                	mv	a2,s1
    80001f8e:	85ca                	mv	a1,s2
    80001f90:	6928                	ld	a0,80(a0)
    80001f92:	fffff097          	auipc	ra,0xfffff
    80001f96:	c78080e7          	jalr	-904(ra) # 80000c0a <copyin>
    80001f9a:	00a03533          	snez	a0,a0
    80001f9e:	40a0053b          	negw	a0,a0
    80001fa2:	2501                	sext.w	a0,a0
}
    80001fa4:	60e2                	ld	ra,24(sp)
    80001fa6:	6442                	ld	s0,16(sp)
    80001fa8:	64a2                	ld	s1,8(sp)
    80001faa:	6902                	ld	s2,0(sp)
    80001fac:	6105                	addi	sp,sp,32
    80001fae:	8082                	ret
    return -1;
    80001fb0:	557d                	li	a0,-1
    80001fb2:	bfcd                	j	80001fa4 <fetchaddr+0x40>
    80001fb4:	557d                	li	a0,-1
    80001fb6:	b7fd                	j	80001fa4 <fetchaddr+0x40>

0000000080001fb8 <fetchstr>:
{
    80001fb8:	7179                	addi	sp,sp,-48
    80001fba:	f406                	sd	ra,40(sp)
    80001fbc:	f022                	sd	s0,32(sp)
    80001fbe:	ec26                	sd	s1,24(sp)
    80001fc0:	e84a                	sd	s2,16(sp)
    80001fc2:	e44e                	sd	s3,8(sp)
    80001fc4:	1800                	addi	s0,sp,48
    80001fc6:	892a                	mv	s2,a0
    80001fc8:	84ae                	mv	s1,a1
    80001fca:	89b2                	mv	s3,a2
  struct proc *p = myproc();
    80001fcc:	fffff097          	auipc	ra,0xfffff
    80001fd0:	f34080e7          	jalr	-204(ra) # 80000f00 <myproc>
  int err = copyinstr(p->pagetable, buf, addr, max);
    80001fd4:	86ce                	mv	a3,s3
    80001fd6:	864a                	mv	a2,s2
    80001fd8:	85a6                	mv	a1,s1
    80001fda:	6928                	ld	a0,80(a0)
    80001fdc:	fffff097          	auipc	ra,0xfffff
    80001fe0:	cbc080e7          	jalr	-836(ra) # 80000c98 <copyinstr>
  if(err < 0)
    80001fe4:	00054763          	bltz	a0,80001ff2 <fetchstr+0x3a>
  return strlen(buf);
    80001fe8:	8526                	mv	a0,s1
    80001fea:	ffffe097          	auipc	ra,0xffffe
    80001fee:	33c080e7          	jalr	828(ra) # 80000326 <strlen>
}
    80001ff2:	70a2                	ld	ra,40(sp)
    80001ff4:	7402                	ld	s0,32(sp)
    80001ff6:	64e2                	ld	s1,24(sp)
    80001ff8:	6942                	ld	s2,16(sp)
    80001ffa:	69a2                	ld	s3,8(sp)
    80001ffc:	6145                	addi	sp,sp,48
    80001ffe:	8082                	ret

0000000080002000 <argint>:

// Fetch the nth 32-bit system call argument.
int
argint(int n, int *ip)
{
    80002000:	1101                	addi	sp,sp,-32
    80002002:	ec06                	sd	ra,24(sp)
    80002004:	e822                	sd	s0,16(sp)
    80002006:	e426                	sd	s1,8(sp)
    80002008:	1000                	addi	s0,sp,32
    8000200a:	84ae                	mv	s1,a1
  *ip = argraw(n);
    8000200c:	00000097          	auipc	ra,0x0
    80002010:	eec080e7          	jalr	-276(ra) # 80001ef8 <argraw>
    80002014:	c088                	sw	a0,0(s1)
  return 0;
}
    80002016:	4501                	li	a0,0
    80002018:	60e2                	ld	ra,24(sp)
    8000201a:	6442                	ld	s0,16(sp)
    8000201c:	64a2                	ld	s1,8(sp)
    8000201e:	6105                	addi	sp,sp,32
    80002020:	8082                	ret

0000000080002022 <argaddr>:
// Retrieve an argument as a pointer.
// Doesn't check for legality, since
// copyin/copyout will do that.
int
argaddr(int n, uint64 *ip)
{
    80002022:	1101                	addi	sp,sp,-32
    80002024:	ec06                	sd	ra,24(sp)
    80002026:	e822                	sd	s0,16(sp)
    80002028:	e426                	sd	s1,8(sp)
    8000202a:	1000                	addi	s0,sp,32
    8000202c:	84ae                	mv	s1,a1
  *ip = argraw(n);
    8000202e:	00000097          	auipc	ra,0x0
    80002032:	eca080e7          	jalr	-310(ra) # 80001ef8 <argraw>
    80002036:	e088                	sd	a0,0(s1)
  return 0;
}
    80002038:	4501                	li	a0,0
    8000203a:	60e2                	ld	ra,24(sp)
    8000203c:	6442                	ld	s0,16(sp)
    8000203e:	64a2                	ld	s1,8(sp)
    80002040:	6105                	addi	sp,sp,32
    80002042:	8082                	ret

0000000080002044 <argstr>:
// Fetch the nth word-sized system call argument as a null-terminated string.
// Copies into buf, at most max.
// Returns string length if OK (including nul), -1 if error.
int
argstr(int n, char *buf, int max)
{
    80002044:	1101                	addi	sp,sp,-32
    80002046:	ec06                	sd	ra,24(sp)
    80002048:	e822                	sd	s0,16(sp)
    8000204a:	e426                	sd	s1,8(sp)
    8000204c:	e04a                	sd	s2,0(sp)
    8000204e:	1000                	addi	s0,sp,32
    80002050:	84ae                	mv	s1,a1
    80002052:	8932                	mv	s2,a2
  *ip = argraw(n);
    80002054:	00000097          	auipc	ra,0x0
    80002058:	ea4080e7          	jalr	-348(ra) # 80001ef8 <argraw>
  uint64 addr;
  if(argaddr(n, &addr) < 0)
    return -1;
  return fetchstr(addr, buf, max);
    8000205c:	864a                	mv	a2,s2
    8000205e:	85a6                	mv	a1,s1
    80002060:	00000097          	auipc	ra,0x0
    80002064:	f58080e7          	jalr	-168(ra) # 80001fb8 <fetchstr>
}
    80002068:	60e2                	ld	ra,24(sp)
    8000206a:	6442                	ld	s0,16(sp)
    8000206c:	64a2                	ld	s1,8(sp)
    8000206e:	6902                	ld	s2,0(sp)
    80002070:	6105                	addi	sp,sp,32
    80002072:	8082                	ret

0000000080002074 <syscall>:



void
syscall(void)
{
    80002074:	1101                	addi	sp,sp,-32
    80002076:	ec06                	sd	ra,24(sp)
    80002078:	e822                	sd	s0,16(sp)
    8000207a:	e426                	sd	s1,8(sp)
    8000207c:	e04a                	sd	s2,0(sp)
    8000207e:	1000                	addi	s0,sp,32
  int num;
  struct proc *p = myproc();
    80002080:	fffff097          	auipc	ra,0xfffff
    80002084:	e80080e7          	jalr	-384(ra) # 80000f00 <myproc>
    80002088:	84aa                	mv	s1,a0

  num = p->trapframe->a7;
    8000208a:	05853903          	ld	s2,88(a0)
    8000208e:	0a893783          	ld	a5,168(s2)
    80002092:	0007869b          	sext.w	a3,a5
  if(num > 0 && num < NELEM(syscalls) && syscalls[num]) {
    80002096:	37fd                	addiw	a5,a5,-1
    80002098:	4771                	li	a4,28
    8000209a:	00f76f63          	bltu	a4,a5,800020b8 <syscall+0x44>
    8000209e:	00369713          	slli	a4,a3,0x3
    800020a2:	00007797          	auipc	a5,0x7
    800020a6:	2e678793          	addi	a5,a5,742 # 80009388 <syscalls>
    800020aa:	97ba                	add	a5,a5,a4
    800020ac:	639c                	ld	a5,0(a5)
    800020ae:	c789                	beqz	a5,800020b8 <syscall+0x44>
    p->trapframe->a0 = syscalls[num]();
    800020b0:	9782                	jalr	a5
    800020b2:	06a93823          	sd	a0,112(s2)
    800020b6:	a839                	j	800020d4 <syscall+0x60>
  } else {
    printf("%d %s: unknown sys call %d\n",
    800020b8:	15848613          	addi	a2,s1,344
    800020bc:	5c8c                	lw	a1,56(s1)
    800020be:	00007517          	auipc	a0,0x7
    800020c2:	3c250513          	addi	a0,a0,962 # 80009480 <syscalls+0xf8>
    800020c6:	00005097          	auipc	ra,0x5
    800020ca:	d12080e7          	jalr	-750(ra) # 80006dd8 <printf>
            p->pid, p->name, num);
    p->trapframe->a0 = -1;
    800020ce:	6cbc                	ld	a5,88(s1)
    800020d0:	577d                	li	a4,-1
    800020d2:	fbb8                	sd	a4,112(a5)
  }
}
    800020d4:	60e2                	ld	ra,24(sp)
    800020d6:	6442                	ld	s0,16(sp)
    800020d8:	64a2                	ld	s1,8(sp)
    800020da:	6902                	ld	s2,0(sp)
    800020dc:	6105                	addi	sp,sp,32
    800020de:	8082                	ret

00000000800020e0 <sys_exit>:
#include "spinlock.h"
#include "proc.h"

uint64
sys_exit(void)
{
    800020e0:	1101                	addi	sp,sp,-32
    800020e2:	ec06                	sd	ra,24(sp)
    800020e4:	e822                	sd	s0,16(sp)
    800020e6:	1000                	addi	s0,sp,32
  int n;
  if(argint(0, &n) < 0)
    800020e8:	fec40593          	addi	a1,s0,-20
    800020ec:	4501                	li	a0,0
    800020ee:	00000097          	auipc	ra,0x0
    800020f2:	f12080e7          	jalr	-238(ra) # 80002000 <argint>
    return -1;
    800020f6:	57fd                	li	a5,-1
  if(argint(0, &n) < 0)
    800020f8:	00054963          	bltz	a0,8000210a <sys_exit+0x2a>
  exit(n);
    800020fc:	fec42503          	lw	a0,-20(s0)
    80002100:	fffff097          	auipc	ra,0xfffff
    80002104:	4d2080e7          	jalr	1234(ra) # 800015d2 <exit>
  return 0;  // not reached
    80002108:	4781                	li	a5,0
}
    8000210a:	853e                	mv	a0,a5
    8000210c:	60e2                	ld	ra,24(sp)
    8000210e:	6442                	ld	s0,16(sp)
    80002110:	6105                	addi	sp,sp,32
    80002112:	8082                	ret

0000000080002114 <sys_getpid>:

uint64
sys_getpid(void)
{
    80002114:	1141                	addi	sp,sp,-16
    80002116:	e406                	sd	ra,8(sp)
    80002118:	e022                	sd	s0,0(sp)
    8000211a:	0800                	addi	s0,sp,16
  return myproc()->pid;
    8000211c:	fffff097          	auipc	ra,0xfffff
    80002120:	de4080e7          	jalr	-540(ra) # 80000f00 <myproc>
}
    80002124:	5d08                	lw	a0,56(a0)
    80002126:	60a2                	ld	ra,8(sp)
    80002128:	6402                	ld	s0,0(sp)
    8000212a:	0141                	addi	sp,sp,16
    8000212c:	8082                	ret

000000008000212e <sys_fork>:

uint64
sys_fork(void)
{
    8000212e:	1141                	addi	sp,sp,-16
    80002130:	e406                	sd	ra,8(sp)
    80002132:	e022                	sd	s0,0(sp)
    80002134:	0800                	addi	s0,sp,16
  return fork();
    80002136:	fffff097          	auipc	ra,0xfffff
    8000213a:	190080e7          	jalr	400(ra) # 800012c6 <fork>
}
    8000213e:	60a2                	ld	ra,8(sp)
    80002140:	6402                	ld	s0,0(sp)
    80002142:	0141                	addi	sp,sp,16
    80002144:	8082                	ret

0000000080002146 <sys_wait>:

uint64
sys_wait(void)
{
    80002146:	1101                	addi	sp,sp,-32
    80002148:	ec06                	sd	ra,24(sp)
    8000214a:	e822                	sd	s0,16(sp)
    8000214c:	1000                	addi	s0,sp,32
  uint64 p;
  if(argaddr(0, &p) < 0)
    8000214e:	fe840593          	addi	a1,s0,-24
    80002152:	4501                	li	a0,0
    80002154:	00000097          	auipc	ra,0x0
    80002158:	ece080e7          	jalr	-306(ra) # 80002022 <argaddr>
    return -1;
    8000215c:	57fd                	li	a5,-1
  if(argaddr(0, &p) < 0)
    8000215e:	00054963          	bltz	a0,80002170 <sys_wait+0x2a>
  return wait(p);
    80002162:	fe843503          	ld	a0,-24(s0)
    80002166:	fffff097          	auipc	ra,0xfffff
    8000216a:	632080e7          	jalr	1586(ra) # 80001798 <wait>
    8000216e:	87aa                	mv	a5,a0
}
    80002170:	853e                	mv	a0,a5
    80002172:	60e2                	ld	ra,24(sp)
    80002174:	6442                	ld	s0,16(sp)
    80002176:	6105                	addi	sp,sp,32
    80002178:	8082                	ret

000000008000217a <sys_sbrk>:

uint64
sys_sbrk(void)
{
    8000217a:	7179                	addi	sp,sp,-48
    8000217c:	f406                	sd	ra,40(sp)
    8000217e:	f022                	sd	s0,32(sp)
    80002180:	ec26                	sd	s1,24(sp)
    80002182:	1800                	addi	s0,sp,48
  int addr;
  int n;

  if(argint(0, &n) < 0)
    80002184:	fdc40593          	addi	a1,s0,-36
    80002188:	4501                	li	a0,0
    8000218a:	00000097          	auipc	ra,0x0
    8000218e:	e76080e7          	jalr	-394(ra) # 80002000 <argint>
    return -1;
    80002192:	54fd                	li	s1,-1
  if(argint(0, &n) < 0)
    80002194:	00054f63          	bltz	a0,800021b2 <sys_sbrk+0x38>
  addr = myproc()->sz;
    80002198:	fffff097          	auipc	ra,0xfffff
    8000219c:	d68080e7          	jalr	-664(ra) # 80000f00 <myproc>
    800021a0:	4524                	lw	s1,72(a0)
  if(growproc(n) < 0)
    800021a2:	fdc42503          	lw	a0,-36(s0)
    800021a6:	fffff097          	auipc	ra,0xfffff
    800021aa:	0a8080e7          	jalr	168(ra) # 8000124e <growproc>
    800021ae:	00054863          	bltz	a0,800021be <sys_sbrk+0x44>
    return -1;
  return addr;
}
    800021b2:	8526                	mv	a0,s1
    800021b4:	70a2                	ld	ra,40(sp)
    800021b6:	7402                	ld	s0,32(sp)
    800021b8:	64e2                	ld	s1,24(sp)
    800021ba:	6145                	addi	sp,sp,48
    800021bc:	8082                	ret
    return -1;
    800021be:	54fd                	li	s1,-1
    800021c0:	bfcd                	j	800021b2 <sys_sbrk+0x38>

00000000800021c2 <sys_sleep>:

uint64
sys_sleep(void)
{
    800021c2:	7139                	addi	sp,sp,-64
    800021c4:	fc06                	sd	ra,56(sp)
    800021c6:	f822                	sd	s0,48(sp)
    800021c8:	f426                	sd	s1,40(sp)
    800021ca:	f04a                	sd	s2,32(sp)
    800021cc:	ec4e                	sd	s3,24(sp)
    800021ce:	0080                	addi	s0,sp,64
  int n;
  uint ticks0;

  if(argint(0, &n) < 0)
    800021d0:	fcc40593          	addi	a1,s0,-52
    800021d4:	4501                	li	a0,0
    800021d6:	00000097          	auipc	ra,0x0
    800021da:	e2a080e7          	jalr	-470(ra) # 80002000 <argint>
    return -1;
    800021de:	57fd                	li	a5,-1
  if(argint(0, &n) < 0)
    800021e0:	06054763          	bltz	a0,8000224e <sys_sleep+0x8c>
  acquire(&tickslock);
    800021e4:	0000e517          	auipc	a0,0xe
    800021e8:	ca450513          	addi	a0,a0,-860 # 8000fe88 <tickslock>
    800021ec:	00005097          	auipc	ra,0x5
    800021f0:	10e080e7          	jalr	270(ra) # 800072fa <acquire>
  ticks0 = ticks;
    800021f4:	00008797          	auipc	a5,0x8
    800021f8:	e2478793          	addi	a5,a5,-476 # 8000a018 <ticks>
    800021fc:	0007a903          	lw	s2,0(a5)
  while(ticks - ticks0 < n){
    80002200:	fcc42783          	lw	a5,-52(s0)
    80002204:	cf85                	beqz	a5,8000223c <sys_sleep+0x7a>
    if(myproc()->killed){
      release(&tickslock);
      return -1;
    }
    sleep(&ticks, &tickslock);
    80002206:	0000e997          	auipc	s3,0xe
    8000220a:	c8298993          	addi	s3,s3,-894 # 8000fe88 <tickslock>
    8000220e:	00008497          	auipc	s1,0x8
    80002212:	e0a48493          	addi	s1,s1,-502 # 8000a018 <ticks>
    if(myproc()->killed){
    80002216:	fffff097          	auipc	ra,0xfffff
    8000221a:	cea080e7          	jalr	-790(ra) # 80000f00 <myproc>
    8000221e:	591c                	lw	a5,48(a0)
    80002220:	ef9d                	bnez	a5,8000225e <sys_sleep+0x9c>
    sleep(&ticks, &tickslock);
    80002222:	85ce                	mv	a1,s3
    80002224:	8526                	mv	a0,s1
    80002226:	fffff097          	auipc	ra,0xfffff
    8000222a:	4f4080e7          	jalr	1268(ra) # 8000171a <sleep>
  while(ticks - ticks0 < n){
    8000222e:	409c                	lw	a5,0(s1)
    80002230:	412787bb          	subw	a5,a5,s2
    80002234:	fcc42703          	lw	a4,-52(s0)
    80002238:	fce7efe3          	bltu	a5,a4,80002216 <sys_sleep+0x54>
  }
  release(&tickslock);
    8000223c:	0000e517          	auipc	a0,0xe
    80002240:	c4c50513          	addi	a0,a0,-948 # 8000fe88 <tickslock>
    80002244:	00005097          	auipc	ra,0x5
    80002248:	16a080e7          	jalr	362(ra) # 800073ae <release>
  return 0;
    8000224c:	4781                	li	a5,0
}
    8000224e:	853e                	mv	a0,a5
    80002250:	70e2                	ld	ra,56(sp)
    80002252:	7442                	ld	s0,48(sp)
    80002254:	74a2                	ld	s1,40(sp)
    80002256:	7902                	ld	s2,32(sp)
    80002258:	69e2                	ld	s3,24(sp)
    8000225a:	6121                	addi	sp,sp,64
    8000225c:	8082                	ret
      release(&tickslock);
    8000225e:	0000e517          	auipc	a0,0xe
    80002262:	c2a50513          	addi	a0,a0,-982 # 8000fe88 <tickslock>
    80002266:	00005097          	auipc	ra,0x5
    8000226a:	148080e7          	jalr	328(ra) # 800073ae <release>
      return -1;
    8000226e:	57fd                	li	a5,-1
    80002270:	bff9                	j	8000224e <sys_sleep+0x8c>

0000000080002272 <sys_kill>:

uint64
sys_kill(void)
{
    80002272:	1101                	addi	sp,sp,-32
    80002274:	ec06                	sd	ra,24(sp)
    80002276:	e822                	sd	s0,16(sp)
    80002278:	1000                	addi	s0,sp,32
  int pid;

  if(argint(0, &pid) < 0)
    8000227a:	fec40593          	addi	a1,s0,-20
    8000227e:	4501                	li	a0,0
    80002280:	00000097          	auipc	ra,0x0
    80002284:	d80080e7          	jalr	-640(ra) # 80002000 <argint>
    return -1;
    80002288:	57fd                	li	a5,-1
  if(argint(0, &pid) < 0)
    8000228a:	00054963          	bltz	a0,8000229c <sys_kill+0x2a>
  return kill(pid);
    8000228e:	fec42503          	lw	a0,-20(s0)
    80002292:	fffff097          	auipc	ra,0xfffff
    80002296:	678080e7          	jalr	1656(ra) # 8000190a <kill>
    8000229a:	87aa                	mv	a5,a0
}
    8000229c:	853e                	mv	a0,a5
    8000229e:	60e2                	ld	ra,24(sp)
    800022a0:	6442                	ld	s0,16(sp)
    800022a2:	6105                	addi	sp,sp,32
    800022a4:	8082                	ret

00000000800022a6 <sys_uptime>:

// return how many clock tick interrupts have occurred
// since start.
uint64
sys_uptime(void)
{
    800022a6:	1101                	addi	sp,sp,-32
    800022a8:	ec06                	sd	ra,24(sp)
    800022aa:	e822                	sd	s0,16(sp)
    800022ac:	e426                	sd	s1,8(sp)
    800022ae:	1000                	addi	s0,sp,32
  uint xticks;

  acquire(&tickslock);
    800022b0:	0000e517          	auipc	a0,0xe
    800022b4:	bd850513          	addi	a0,a0,-1064 # 8000fe88 <tickslock>
    800022b8:	00005097          	auipc	ra,0x5
    800022bc:	042080e7          	jalr	66(ra) # 800072fa <acquire>
  xticks = ticks;
    800022c0:	00008797          	auipc	a5,0x8
    800022c4:	d5878793          	addi	a5,a5,-680 # 8000a018 <ticks>
    800022c8:	4384                	lw	s1,0(a5)
  release(&tickslock);
    800022ca:	0000e517          	auipc	a0,0xe
    800022ce:	bbe50513          	addi	a0,a0,-1090 # 8000fe88 <tickslock>
    800022d2:	00005097          	auipc	ra,0x5
    800022d6:	0dc080e7          	jalr	220(ra) # 800073ae <release>
  return xticks;
}
    800022da:	02049513          	slli	a0,s1,0x20
    800022de:	9101                	srli	a0,a0,0x20
    800022e0:	60e2                	ld	ra,24(sp)
    800022e2:	6442                	ld	s0,16(sp)
    800022e4:	64a2                	ld	s1,8(sp)
    800022e6:	6105                	addi	sp,sp,32
    800022e8:	8082                	ret

00000000800022ea <binit>:
  struct buf head;
} bcache;

void
binit(void)
{
    800022ea:	7179                	addi	sp,sp,-48
    800022ec:	f406                	sd	ra,40(sp)
    800022ee:	f022                	sd	s0,32(sp)
    800022f0:	ec26                	sd	s1,24(sp)
    800022f2:	e84a                	sd	s2,16(sp)
    800022f4:	e44e                	sd	s3,8(sp)
    800022f6:	e052                	sd	s4,0(sp)
    800022f8:	1800                	addi	s0,sp,48
  struct buf *b;

  initlock(&bcache.lock, "bcache");
    800022fa:	00007597          	auipc	a1,0x7
    800022fe:	1a658593          	addi	a1,a1,422 # 800094a0 <syscalls+0x118>
    80002302:	0000e517          	auipc	a0,0xe
    80002306:	b9e50513          	addi	a0,a0,-1122 # 8000fea0 <bcache>
    8000230a:	00005097          	auipc	ra,0x5
    8000230e:	f60080e7          	jalr	-160(ra) # 8000726a <initlock>

  // Create linked list of buffers
  bcache.head.prev = &bcache.head;
    80002312:	00016797          	auipc	a5,0x16
    80002316:	b8e78793          	addi	a5,a5,-1138 # 80017ea0 <bcache+0x8000>
    8000231a:	00016717          	auipc	a4,0x16
    8000231e:	dee70713          	addi	a4,a4,-530 # 80018108 <bcache+0x8268>
    80002322:	2ae7b823          	sd	a4,688(a5)
  bcache.head.next = &bcache.head;
    80002326:	2ae7bc23          	sd	a4,696(a5)
  for(b = bcache.buf; b < bcache.buf+NBUF; b++){
    8000232a:	0000e497          	auipc	s1,0xe
    8000232e:	b8e48493          	addi	s1,s1,-1138 # 8000feb8 <bcache+0x18>
    b->next = bcache.head.next;
    80002332:	893e                	mv	s2,a5
    b->prev = &bcache.head;
    80002334:	89ba                	mv	s3,a4
    initsleeplock(&b->lock, "buffer");
    80002336:	00007a17          	auipc	s4,0x7
    8000233a:	172a0a13          	addi	s4,s4,370 # 800094a8 <syscalls+0x120>
    b->next = bcache.head.next;
    8000233e:	2b893783          	ld	a5,696(s2)
    80002342:	e8bc                	sd	a5,80(s1)
    b->prev = &bcache.head;
    80002344:	0534b423          	sd	s3,72(s1)
    initsleeplock(&b->lock, "buffer");
    80002348:	85d2                	mv	a1,s4
    8000234a:	01048513          	addi	a0,s1,16
    8000234e:	00001097          	auipc	ra,0x1
    80002352:	532080e7          	jalr	1330(ra) # 80003880 <initsleeplock>
    bcache.head.next->prev = b;
    80002356:	2b893783          	ld	a5,696(s2)
    8000235a:	e7a4                	sd	s1,72(a5)
    bcache.head.next = b;
    8000235c:	2a993c23          	sd	s1,696(s2)
  for(b = bcache.buf; b < bcache.buf+NBUF; b++){
    80002360:	45848493          	addi	s1,s1,1112
    80002364:	fd349de3          	bne	s1,s3,8000233e <binit+0x54>
  }
}
    80002368:	70a2                	ld	ra,40(sp)
    8000236a:	7402                	ld	s0,32(sp)
    8000236c:	64e2                	ld	s1,24(sp)
    8000236e:	6942                	ld	s2,16(sp)
    80002370:	69a2                	ld	s3,8(sp)
    80002372:	6a02                	ld	s4,0(sp)
    80002374:	6145                	addi	sp,sp,48
    80002376:	8082                	ret

0000000080002378 <bread>:
}

// Return a locked buf with the contents of the indicated block.
struct buf*
bread(uint dev, uint blockno)
{
    80002378:	7179                	addi	sp,sp,-48
    8000237a:	f406                	sd	ra,40(sp)
    8000237c:	f022                	sd	s0,32(sp)
    8000237e:	ec26                	sd	s1,24(sp)
    80002380:	e84a                	sd	s2,16(sp)
    80002382:	e44e                	sd	s3,8(sp)
    80002384:	1800                	addi	s0,sp,48
    80002386:	89aa                	mv	s3,a0
    80002388:	892e                	mv	s2,a1
  acquire(&bcache.lock);
    8000238a:	0000e517          	auipc	a0,0xe
    8000238e:	b1650513          	addi	a0,a0,-1258 # 8000fea0 <bcache>
    80002392:	00005097          	auipc	ra,0x5
    80002396:	f68080e7          	jalr	-152(ra) # 800072fa <acquire>
  for(b = bcache.head.next; b != &bcache.head; b = b->next){
    8000239a:	00016797          	auipc	a5,0x16
    8000239e:	b0678793          	addi	a5,a5,-1274 # 80017ea0 <bcache+0x8000>
    800023a2:	2b87b483          	ld	s1,696(a5)
    800023a6:	00016797          	auipc	a5,0x16
    800023aa:	d6278793          	addi	a5,a5,-670 # 80018108 <bcache+0x8268>
    800023ae:	02f48f63          	beq	s1,a5,800023ec <bread+0x74>
    800023b2:	873e                	mv	a4,a5
    800023b4:	a021                	j	800023bc <bread+0x44>
    800023b6:	68a4                	ld	s1,80(s1)
    800023b8:	02e48a63          	beq	s1,a4,800023ec <bread+0x74>
    if(b->dev == dev && b->blockno == blockno){
    800023bc:	449c                	lw	a5,8(s1)
    800023be:	ff379ce3          	bne	a5,s3,800023b6 <bread+0x3e>
    800023c2:	44dc                	lw	a5,12(s1)
    800023c4:	ff2799e3          	bne	a5,s2,800023b6 <bread+0x3e>
      b->refcnt++;
    800023c8:	40bc                	lw	a5,64(s1)
    800023ca:	2785                	addiw	a5,a5,1
    800023cc:	c0bc                	sw	a5,64(s1)
      release(&bcache.lock);
    800023ce:	0000e517          	auipc	a0,0xe
    800023d2:	ad250513          	addi	a0,a0,-1326 # 8000fea0 <bcache>
    800023d6:	00005097          	auipc	ra,0x5
    800023da:	fd8080e7          	jalr	-40(ra) # 800073ae <release>
      acquiresleep(&b->lock);
    800023de:	01048513          	addi	a0,s1,16
    800023e2:	00001097          	auipc	ra,0x1
    800023e6:	4d8080e7          	jalr	1240(ra) # 800038ba <acquiresleep>
      return b;
    800023ea:	a8b1                	j	80002446 <bread+0xce>
  for(b = bcache.head.prev; b != &bcache.head; b = b->prev){
    800023ec:	00016797          	auipc	a5,0x16
    800023f0:	ab478793          	addi	a5,a5,-1356 # 80017ea0 <bcache+0x8000>
    800023f4:	2b07b483          	ld	s1,688(a5)
    800023f8:	00016797          	auipc	a5,0x16
    800023fc:	d1078793          	addi	a5,a5,-752 # 80018108 <bcache+0x8268>
    80002400:	04f48d63          	beq	s1,a5,8000245a <bread+0xe2>
    if(b->refcnt == 0) {
    80002404:	40bc                	lw	a5,64(s1)
    80002406:	cb91                	beqz	a5,8000241a <bread+0xa2>
  for(b = bcache.head.prev; b != &bcache.head; b = b->prev){
    80002408:	00016717          	auipc	a4,0x16
    8000240c:	d0070713          	addi	a4,a4,-768 # 80018108 <bcache+0x8268>
    80002410:	64a4                	ld	s1,72(s1)
    80002412:	04e48463          	beq	s1,a4,8000245a <bread+0xe2>
    if(b->refcnt == 0) {
    80002416:	40bc                	lw	a5,64(s1)
    80002418:	ffe5                	bnez	a5,80002410 <bread+0x98>
      b->dev = dev;
    8000241a:	0134a423          	sw	s3,8(s1)
      b->blockno = blockno;
    8000241e:	0124a623          	sw	s2,12(s1)
      b->valid = 0;
    80002422:	0004a023          	sw	zero,0(s1)
      b->refcnt = 1;
    80002426:	4785                	li	a5,1
    80002428:	c0bc                	sw	a5,64(s1)
      release(&bcache.lock);
    8000242a:	0000e517          	auipc	a0,0xe
    8000242e:	a7650513          	addi	a0,a0,-1418 # 8000fea0 <bcache>
    80002432:	00005097          	auipc	ra,0x5
    80002436:	f7c080e7          	jalr	-132(ra) # 800073ae <release>
      acquiresleep(&b->lock);
    8000243a:	01048513          	addi	a0,s1,16
    8000243e:	00001097          	auipc	ra,0x1
    80002442:	47c080e7          	jalr	1148(ra) # 800038ba <acquiresleep>
  struct buf *b;

  b = bget(dev, blockno);
  if(!b->valid) {
    80002446:	409c                	lw	a5,0(s1)
    80002448:	c38d                	beqz	a5,8000246a <bread+0xf2>
    virtio_disk_rw(b, 0);
    b->valid = 1;
  }
  return b;
}
    8000244a:	8526                	mv	a0,s1
    8000244c:	70a2                	ld	ra,40(sp)
    8000244e:	7402                	ld	s0,32(sp)
    80002450:	64e2                	ld	s1,24(sp)
    80002452:	6942                	ld	s2,16(sp)
    80002454:	69a2                	ld	s3,8(sp)
    80002456:	6145                	addi	sp,sp,48
    80002458:	8082                	ret
  panic("bget: no buffers");
    8000245a:	00007517          	auipc	a0,0x7
    8000245e:	05650513          	addi	a0,a0,86 # 800094b0 <syscalls+0x128>
    80002462:	00005097          	auipc	ra,0x5
    80002466:	92c080e7          	jalr	-1748(ra) # 80006d8e <panic>
    virtio_disk_rw(b, 0);
    8000246a:	4581                	li	a1,0
    8000246c:	8526                	mv	a0,s1
    8000246e:	00003097          	auipc	ra,0x3
    80002472:	0c2080e7          	jalr	194(ra) # 80005530 <virtio_disk_rw>
    b->valid = 1;
    80002476:	4785                	li	a5,1
    80002478:	c09c                	sw	a5,0(s1)
  return b;
    8000247a:	bfc1                	j	8000244a <bread+0xd2>

000000008000247c <bwrite>:

// Write b's contents to disk.  Must be locked.
void
bwrite(struct buf *b)
{
    8000247c:	1101                	addi	sp,sp,-32
    8000247e:	ec06                	sd	ra,24(sp)
    80002480:	e822                	sd	s0,16(sp)
    80002482:	e426                	sd	s1,8(sp)
    80002484:	1000                	addi	s0,sp,32
    80002486:	84aa                	mv	s1,a0
  if(!holdingsleep(&b->lock))
    80002488:	0541                	addi	a0,a0,16
    8000248a:	00001097          	auipc	ra,0x1
    8000248e:	4ca080e7          	jalr	1226(ra) # 80003954 <holdingsleep>
    80002492:	cd01                	beqz	a0,800024aa <bwrite+0x2e>
    panic("bwrite");
  virtio_disk_rw(b, 1);
    80002494:	4585                	li	a1,1
    80002496:	8526                	mv	a0,s1
    80002498:	00003097          	auipc	ra,0x3
    8000249c:	098080e7          	jalr	152(ra) # 80005530 <virtio_disk_rw>
}
    800024a0:	60e2                	ld	ra,24(sp)
    800024a2:	6442                	ld	s0,16(sp)
    800024a4:	64a2                	ld	s1,8(sp)
    800024a6:	6105                	addi	sp,sp,32
    800024a8:	8082                	ret
    panic("bwrite");
    800024aa:	00007517          	auipc	a0,0x7
    800024ae:	01e50513          	addi	a0,a0,30 # 800094c8 <syscalls+0x140>
    800024b2:	00005097          	auipc	ra,0x5
    800024b6:	8dc080e7          	jalr	-1828(ra) # 80006d8e <panic>

00000000800024ba <brelse>:

// Release a locked buffer.
// Move to the head of the most-recently-used list.
void
brelse(struct buf *b)
{
    800024ba:	1101                	addi	sp,sp,-32
    800024bc:	ec06                	sd	ra,24(sp)
    800024be:	e822                	sd	s0,16(sp)
    800024c0:	e426                	sd	s1,8(sp)
    800024c2:	e04a                	sd	s2,0(sp)
    800024c4:	1000                	addi	s0,sp,32
    800024c6:	84aa                	mv	s1,a0
  if(!holdingsleep(&b->lock))
    800024c8:	01050913          	addi	s2,a0,16
    800024cc:	854a                	mv	a0,s2
    800024ce:	00001097          	auipc	ra,0x1
    800024d2:	486080e7          	jalr	1158(ra) # 80003954 <holdingsleep>
    800024d6:	c92d                	beqz	a0,80002548 <brelse+0x8e>
    panic("brelse");

  releasesleep(&b->lock);
    800024d8:	854a                	mv	a0,s2
    800024da:	00001097          	auipc	ra,0x1
    800024de:	436080e7          	jalr	1078(ra) # 80003910 <releasesleep>

  acquire(&bcache.lock);
    800024e2:	0000e517          	auipc	a0,0xe
    800024e6:	9be50513          	addi	a0,a0,-1602 # 8000fea0 <bcache>
    800024ea:	00005097          	auipc	ra,0x5
    800024ee:	e10080e7          	jalr	-496(ra) # 800072fa <acquire>
  b->refcnt--;
    800024f2:	40bc                	lw	a5,64(s1)
    800024f4:	37fd                	addiw	a5,a5,-1
    800024f6:	0007871b          	sext.w	a4,a5
    800024fa:	c0bc                	sw	a5,64(s1)
  if (b->refcnt == 0) {
    800024fc:	eb05                	bnez	a4,8000252c <brelse+0x72>
    // no one is waiting for it.
    b->next->prev = b->prev;
    800024fe:	68bc                	ld	a5,80(s1)
    80002500:	64b8                	ld	a4,72(s1)
    80002502:	e7b8                	sd	a4,72(a5)
    b->prev->next = b->next;
    80002504:	64bc                	ld	a5,72(s1)
    80002506:	68b8                	ld	a4,80(s1)
    80002508:	ebb8                	sd	a4,80(a5)
    b->next = bcache.head.next;
    8000250a:	00016797          	auipc	a5,0x16
    8000250e:	99678793          	addi	a5,a5,-1642 # 80017ea0 <bcache+0x8000>
    80002512:	2b87b703          	ld	a4,696(a5)
    80002516:	e8b8                	sd	a4,80(s1)
    b->prev = &bcache.head;
    80002518:	00016717          	auipc	a4,0x16
    8000251c:	bf070713          	addi	a4,a4,-1040 # 80018108 <bcache+0x8268>
    80002520:	e4b8                	sd	a4,72(s1)
    bcache.head.next->prev = b;
    80002522:	2b87b703          	ld	a4,696(a5)
    80002526:	e724                	sd	s1,72(a4)
    bcache.head.next = b;
    80002528:	2a97bc23          	sd	s1,696(a5)
  }
  
  release(&bcache.lock);
    8000252c:	0000e517          	auipc	a0,0xe
    80002530:	97450513          	addi	a0,a0,-1676 # 8000fea0 <bcache>
    80002534:	00005097          	auipc	ra,0x5
    80002538:	e7a080e7          	jalr	-390(ra) # 800073ae <release>
}
    8000253c:	60e2                	ld	ra,24(sp)
    8000253e:	6442                	ld	s0,16(sp)
    80002540:	64a2                	ld	s1,8(sp)
    80002542:	6902                	ld	s2,0(sp)
    80002544:	6105                	addi	sp,sp,32
    80002546:	8082                	ret
    panic("brelse");
    80002548:	00007517          	auipc	a0,0x7
    8000254c:	f8850513          	addi	a0,a0,-120 # 800094d0 <syscalls+0x148>
    80002550:	00005097          	auipc	ra,0x5
    80002554:	83e080e7          	jalr	-1986(ra) # 80006d8e <panic>

0000000080002558 <bpin>:

void
bpin(struct buf *b) {
    80002558:	1101                	addi	sp,sp,-32
    8000255a:	ec06                	sd	ra,24(sp)
    8000255c:	e822                	sd	s0,16(sp)
    8000255e:	e426                	sd	s1,8(sp)
    80002560:	1000                	addi	s0,sp,32
    80002562:	84aa                	mv	s1,a0
  acquire(&bcache.lock);
    80002564:	0000e517          	auipc	a0,0xe
    80002568:	93c50513          	addi	a0,a0,-1732 # 8000fea0 <bcache>
    8000256c:	00005097          	auipc	ra,0x5
    80002570:	d8e080e7          	jalr	-626(ra) # 800072fa <acquire>
  b->refcnt++;
    80002574:	40bc                	lw	a5,64(s1)
    80002576:	2785                	addiw	a5,a5,1
    80002578:	c0bc                	sw	a5,64(s1)
  release(&bcache.lock);
    8000257a:	0000e517          	auipc	a0,0xe
    8000257e:	92650513          	addi	a0,a0,-1754 # 8000fea0 <bcache>
    80002582:	00005097          	auipc	ra,0x5
    80002586:	e2c080e7          	jalr	-468(ra) # 800073ae <release>
}
    8000258a:	60e2                	ld	ra,24(sp)
    8000258c:	6442                	ld	s0,16(sp)
    8000258e:	64a2                	ld	s1,8(sp)
    80002590:	6105                	addi	sp,sp,32
    80002592:	8082                	ret

0000000080002594 <bunpin>:

void
bunpin(struct buf *b) {
    80002594:	1101                	addi	sp,sp,-32
    80002596:	ec06                	sd	ra,24(sp)
    80002598:	e822                	sd	s0,16(sp)
    8000259a:	e426                	sd	s1,8(sp)
    8000259c:	1000                	addi	s0,sp,32
    8000259e:	84aa                	mv	s1,a0
  acquire(&bcache.lock);
    800025a0:	0000e517          	auipc	a0,0xe
    800025a4:	90050513          	addi	a0,a0,-1792 # 8000fea0 <bcache>
    800025a8:	00005097          	auipc	ra,0x5
    800025ac:	d52080e7          	jalr	-686(ra) # 800072fa <acquire>
  b->refcnt--;
    800025b0:	40bc                	lw	a5,64(s1)
    800025b2:	37fd                	addiw	a5,a5,-1
    800025b4:	c0bc                	sw	a5,64(s1)
  release(&bcache.lock);
    800025b6:	0000e517          	auipc	a0,0xe
    800025ba:	8ea50513          	addi	a0,a0,-1814 # 8000fea0 <bcache>
    800025be:	00005097          	auipc	ra,0x5
    800025c2:	df0080e7          	jalr	-528(ra) # 800073ae <release>
}
    800025c6:	60e2                	ld	ra,24(sp)
    800025c8:	6442                	ld	s0,16(sp)
    800025ca:	64a2                	ld	s1,8(sp)
    800025cc:	6105                	addi	sp,sp,32
    800025ce:	8082                	ret

00000000800025d0 <bfree>:
}

// Free a disk block.
static void
bfree(int dev, uint b)
{
    800025d0:	1101                	addi	sp,sp,-32
    800025d2:	ec06                	sd	ra,24(sp)
    800025d4:	e822                	sd	s0,16(sp)
    800025d6:	e426                	sd	s1,8(sp)
    800025d8:	e04a                	sd	s2,0(sp)
    800025da:	1000                	addi	s0,sp,32
    800025dc:	84ae                	mv	s1,a1
  struct buf *bp;
  int bi, m;

  bp = bread(dev, BBLOCK(b, sb));
    800025de:	00d5d59b          	srliw	a1,a1,0xd
    800025e2:	00016797          	auipc	a5,0x16
    800025e6:	f7e78793          	addi	a5,a5,-130 # 80018560 <sb>
    800025ea:	4fdc                	lw	a5,28(a5)
    800025ec:	9dbd                	addw	a1,a1,a5
    800025ee:	00000097          	auipc	ra,0x0
    800025f2:	d8a080e7          	jalr	-630(ra) # 80002378 <bread>
  bi = b % BPB;
    800025f6:	2481                	sext.w	s1,s1
  m = 1 << (bi % 8);
    800025f8:	0074f793          	andi	a5,s1,7
    800025fc:	4705                	li	a4,1
    800025fe:	00f7173b          	sllw	a4,a4,a5
  bi = b % BPB;
    80002602:	6789                	lui	a5,0x2
    80002604:	17fd                	addi	a5,a5,-1
    80002606:	8cfd                	and	s1,s1,a5
  if((bp->data[bi/8] & m) == 0)
    80002608:	41f4d79b          	sraiw	a5,s1,0x1f
    8000260c:	01d7d79b          	srliw	a5,a5,0x1d
    80002610:	9fa5                	addw	a5,a5,s1
    80002612:	4037d79b          	sraiw	a5,a5,0x3
    80002616:	00f506b3          	add	a3,a0,a5
    8000261a:	0586c683          	lbu	a3,88(a3)
    8000261e:	00d77633          	and	a2,a4,a3
    80002622:	c61d                	beqz	a2,80002650 <bfree+0x80>
    80002624:	892a                	mv	s2,a0
    panic("freeing free block");
  bp->data[bi/8] &= ~m;
    80002626:	97aa                	add	a5,a5,a0
    80002628:	fff74713          	not	a4,a4
    8000262c:	8f75                	and	a4,a4,a3
    8000262e:	04e78c23          	sb	a4,88(a5) # 2058 <_entry-0x7fffdfa8>
  log_write(bp);
    80002632:	00001097          	auipc	ra,0x1
    80002636:	14a080e7          	jalr	330(ra) # 8000377c <log_write>
  brelse(bp);
    8000263a:	854a                	mv	a0,s2
    8000263c:	00000097          	auipc	ra,0x0
    80002640:	e7e080e7          	jalr	-386(ra) # 800024ba <brelse>
}
    80002644:	60e2                	ld	ra,24(sp)
    80002646:	6442                	ld	s0,16(sp)
    80002648:	64a2                	ld	s1,8(sp)
    8000264a:	6902                	ld	s2,0(sp)
    8000264c:	6105                	addi	sp,sp,32
    8000264e:	8082                	ret
    panic("freeing free block");
    80002650:	00007517          	auipc	a0,0x7
    80002654:	e8850513          	addi	a0,a0,-376 # 800094d8 <syscalls+0x150>
    80002658:	00004097          	auipc	ra,0x4
    8000265c:	736080e7          	jalr	1846(ra) # 80006d8e <panic>

0000000080002660 <balloc>:
{
    80002660:	711d                	addi	sp,sp,-96
    80002662:	ec86                	sd	ra,88(sp)
    80002664:	e8a2                	sd	s0,80(sp)
    80002666:	e4a6                	sd	s1,72(sp)
    80002668:	e0ca                	sd	s2,64(sp)
    8000266a:	fc4e                	sd	s3,56(sp)
    8000266c:	f852                	sd	s4,48(sp)
    8000266e:	f456                	sd	s5,40(sp)
    80002670:	f05a                	sd	s6,32(sp)
    80002672:	ec5e                	sd	s7,24(sp)
    80002674:	e862                	sd	s8,16(sp)
    80002676:	e466                	sd	s9,8(sp)
    80002678:	1080                	addi	s0,sp,96
  for(b = 0; b < sb.size; b += BPB){
    8000267a:	00016797          	auipc	a5,0x16
    8000267e:	ee678793          	addi	a5,a5,-282 # 80018560 <sb>
    80002682:	43dc                	lw	a5,4(a5)
    80002684:	10078e63          	beqz	a5,800027a0 <balloc+0x140>
    80002688:	8baa                	mv	s7,a0
    8000268a:	4a81                	li	s5,0
    bp = bread(dev, BBLOCK(b, sb));
    8000268c:	00016b17          	auipc	s6,0x16
    80002690:	ed4b0b13          	addi	s6,s6,-300 # 80018560 <sb>
    for(bi = 0; bi < BPB && b + bi < sb.size; bi++){
    80002694:	4c05                	li	s8,1
      m = 1 << (bi % 8);
    80002696:	4985                	li	s3,1
    for(bi = 0; bi < BPB && b + bi < sb.size; bi++){
    80002698:	6a09                	lui	s4,0x2
  for(b = 0; b < sb.size; b += BPB){
    8000269a:	6c89                	lui	s9,0x2
    8000269c:	a079                	j	8000272a <balloc+0xca>
    for(bi = 0; bi < BPB && b + bi < sb.size; bi++){
    8000269e:	8942                	mv	s2,a6
      m = 1 << (bi % 8);
    800026a0:	4705                	li	a4,1
      if((bp->data[bi/8] & m) == 0){  // Is block free?
    800026a2:	4681                	li	a3,0
        bp->data[bi/8] |= m;  // Mark block in use.
    800026a4:	96a6                	add	a3,a3,s1
    800026a6:	8f51                	or	a4,a4,a2
    800026a8:	04e68c23          	sb	a4,88(a3)
        log_write(bp);
    800026ac:	8526                	mv	a0,s1
    800026ae:	00001097          	auipc	ra,0x1
    800026b2:	0ce080e7          	jalr	206(ra) # 8000377c <log_write>
        brelse(bp);
    800026b6:	8526                	mv	a0,s1
    800026b8:	00000097          	auipc	ra,0x0
    800026bc:	e02080e7          	jalr	-510(ra) # 800024ba <brelse>
  bp = bread(dev, bno);
    800026c0:	85ca                	mv	a1,s2
    800026c2:	855e                	mv	a0,s7
    800026c4:	00000097          	auipc	ra,0x0
    800026c8:	cb4080e7          	jalr	-844(ra) # 80002378 <bread>
    800026cc:	84aa                	mv	s1,a0
  memset(bp->data, 0, BSIZE);
    800026ce:	40000613          	li	a2,1024
    800026d2:	4581                	li	a1,0
    800026d4:	05850513          	addi	a0,a0,88
    800026d8:	ffffe097          	auipc	ra,0xffffe
    800026dc:	aa4080e7          	jalr	-1372(ra) # 8000017c <memset>
  log_write(bp);
    800026e0:	8526                	mv	a0,s1
    800026e2:	00001097          	auipc	ra,0x1
    800026e6:	09a080e7          	jalr	154(ra) # 8000377c <log_write>
  brelse(bp);
    800026ea:	8526                	mv	a0,s1
    800026ec:	00000097          	auipc	ra,0x0
    800026f0:	dce080e7          	jalr	-562(ra) # 800024ba <brelse>
}
    800026f4:	854a                	mv	a0,s2
    800026f6:	60e6                	ld	ra,88(sp)
    800026f8:	6446                	ld	s0,80(sp)
    800026fa:	64a6                	ld	s1,72(sp)
    800026fc:	6906                	ld	s2,64(sp)
    800026fe:	79e2                	ld	s3,56(sp)
    80002700:	7a42                	ld	s4,48(sp)
    80002702:	7aa2                	ld	s5,40(sp)
    80002704:	7b02                	ld	s6,32(sp)
    80002706:	6be2                	ld	s7,24(sp)
    80002708:	6c42                	ld	s8,16(sp)
    8000270a:	6ca2                	ld	s9,8(sp)
    8000270c:	6125                	addi	sp,sp,96
    8000270e:	8082                	ret
    brelse(bp);
    80002710:	8526                	mv	a0,s1
    80002712:	00000097          	auipc	ra,0x0
    80002716:	da8080e7          	jalr	-600(ra) # 800024ba <brelse>
  for(b = 0; b < sb.size; b += BPB){
    8000271a:	015c87bb          	addw	a5,s9,s5
    8000271e:	00078a9b          	sext.w	s5,a5
    80002722:	004b2703          	lw	a4,4(s6)
    80002726:	06eafd63          	bleu	a4,s5,800027a0 <balloc+0x140>
    bp = bread(dev, BBLOCK(b, sb));
    8000272a:	41fad79b          	sraiw	a5,s5,0x1f
    8000272e:	0137d79b          	srliw	a5,a5,0x13
    80002732:	015787bb          	addw	a5,a5,s5
    80002736:	40d7d79b          	sraiw	a5,a5,0xd
    8000273a:	01cb2583          	lw	a1,28(s6)
    8000273e:	9dbd                	addw	a1,a1,a5
    80002740:	855e                	mv	a0,s7
    80002742:	00000097          	auipc	ra,0x0
    80002746:	c36080e7          	jalr	-970(ra) # 80002378 <bread>
    8000274a:	84aa                	mv	s1,a0
    for(bi = 0; bi < BPB && b + bi < sb.size; bi++){
    8000274c:	000a881b          	sext.w	a6,s5
    80002750:	004b2503          	lw	a0,4(s6)
    80002754:	faa87ee3          	bleu	a0,a6,80002710 <balloc+0xb0>
      if((bp->data[bi/8] & m) == 0){  // Is block free?
    80002758:	0584c603          	lbu	a2,88(s1)
    8000275c:	00167793          	andi	a5,a2,1
    80002760:	df9d                	beqz	a5,8000269e <balloc+0x3e>
    80002762:	4105053b          	subw	a0,a0,a6
    for(bi = 0; bi < BPB && b + bi < sb.size; bi++){
    80002766:	87e2                	mv	a5,s8
    80002768:	0107893b          	addw	s2,a5,a6
    8000276c:	faa782e3          	beq	a5,a0,80002710 <balloc+0xb0>
      m = 1 << (bi % 8);
    80002770:	41f7d71b          	sraiw	a4,a5,0x1f
    80002774:	01d7561b          	srliw	a2,a4,0x1d
    80002778:	00f606bb          	addw	a3,a2,a5
    8000277c:	0076f713          	andi	a4,a3,7
    80002780:	9f11                	subw	a4,a4,a2
    80002782:	00e9973b          	sllw	a4,s3,a4
      if((bp->data[bi/8] & m) == 0){  // Is block free?
    80002786:	4036d69b          	sraiw	a3,a3,0x3
    8000278a:	00d48633          	add	a2,s1,a3
    8000278e:	05864603          	lbu	a2,88(a2)
    80002792:	00c775b3          	and	a1,a4,a2
    80002796:	d599                	beqz	a1,800026a4 <balloc+0x44>
    for(bi = 0; bi < BPB && b + bi < sb.size; bi++){
    80002798:	2785                	addiw	a5,a5,1
    8000279a:	fd4797e3          	bne	a5,s4,80002768 <balloc+0x108>
    8000279e:	bf8d                	j	80002710 <balloc+0xb0>
  panic("balloc: out of blocks");
    800027a0:	00007517          	auipc	a0,0x7
    800027a4:	d5050513          	addi	a0,a0,-688 # 800094f0 <syscalls+0x168>
    800027a8:	00004097          	auipc	ra,0x4
    800027ac:	5e6080e7          	jalr	1510(ra) # 80006d8e <panic>

00000000800027b0 <bmap>:

// Return the disk block address of the nth block in inode ip.
// If there is no such block, bmap allocates one.
static uint
bmap(struct inode *ip, uint bn)
{
    800027b0:	7179                	addi	sp,sp,-48
    800027b2:	f406                	sd	ra,40(sp)
    800027b4:	f022                	sd	s0,32(sp)
    800027b6:	ec26                	sd	s1,24(sp)
    800027b8:	e84a                	sd	s2,16(sp)
    800027ba:	e44e                	sd	s3,8(sp)
    800027bc:	e052                	sd	s4,0(sp)
    800027be:	1800                	addi	s0,sp,48
    800027c0:	89aa                	mv	s3,a0
  uint addr, *a;
  struct buf *bp;

  if(bn < NDIRECT){
    800027c2:	47ad                	li	a5,11
    800027c4:	04b7fe63          	bleu	a1,a5,80002820 <bmap+0x70>
    if((addr = ip->addrs[bn]) == 0)
      ip->addrs[bn] = addr = balloc(ip->dev);
    return addr;
  }
  bn -= NDIRECT;
    800027c8:	ff45849b          	addiw	s1,a1,-12
    800027cc:	0004871b          	sext.w	a4,s1

  if(bn < NINDIRECT){
    800027d0:	0ff00793          	li	a5,255
    800027d4:	0ae7e363          	bltu	a5,a4,8000287a <bmap+0xca>
    // Load indirect block, allocating if necessary.
    if((addr = ip->addrs[NDIRECT]) == 0)
    800027d8:	08052583          	lw	a1,128(a0)
    800027dc:	c5ad                	beqz	a1,80002846 <bmap+0x96>
      ip->addrs[NDIRECT] = addr = balloc(ip->dev);
    bp = bread(ip->dev, addr);
    800027de:	0009a503          	lw	a0,0(s3)
    800027e2:	00000097          	auipc	ra,0x0
    800027e6:	b96080e7          	jalr	-1130(ra) # 80002378 <bread>
    800027ea:	8a2a                	mv	s4,a0
    a = (uint*)bp->data;
    800027ec:	05850793          	addi	a5,a0,88
    if((addr = a[bn]) == 0){
    800027f0:	02049593          	slli	a1,s1,0x20
    800027f4:	9181                	srli	a1,a1,0x20
    800027f6:	058a                	slli	a1,a1,0x2
    800027f8:	00b784b3          	add	s1,a5,a1
    800027fc:	0004a903          	lw	s2,0(s1)
    80002800:	04090d63          	beqz	s2,8000285a <bmap+0xaa>
      a[bn] = addr = balloc(ip->dev);
      log_write(bp);
    }
    brelse(bp);
    80002804:	8552                	mv	a0,s4
    80002806:	00000097          	auipc	ra,0x0
    8000280a:	cb4080e7          	jalr	-844(ra) # 800024ba <brelse>
    return addr;
  }

  panic("bmap: out of range");
}
    8000280e:	854a                	mv	a0,s2
    80002810:	70a2                	ld	ra,40(sp)
    80002812:	7402                	ld	s0,32(sp)
    80002814:	64e2                	ld	s1,24(sp)
    80002816:	6942                	ld	s2,16(sp)
    80002818:	69a2                	ld	s3,8(sp)
    8000281a:	6a02                	ld	s4,0(sp)
    8000281c:	6145                	addi	sp,sp,48
    8000281e:	8082                	ret
    if((addr = ip->addrs[bn]) == 0)
    80002820:	02059493          	slli	s1,a1,0x20
    80002824:	9081                	srli	s1,s1,0x20
    80002826:	048a                	slli	s1,s1,0x2
    80002828:	94aa                	add	s1,s1,a0
    8000282a:	0504a903          	lw	s2,80(s1)
    8000282e:	fe0910e3          	bnez	s2,8000280e <bmap+0x5e>
      ip->addrs[bn] = addr = balloc(ip->dev);
    80002832:	4108                	lw	a0,0(a0)
    80002834:	00000097          	auipc	ra,0x0
    80002838:	e2c080e7          	jalr	-468(ra) # 80002660 <balloc>
    8000283c:	0005091b          	sext.w	s2,a0
    80002840:	0524a823          	sw	s2,80(s1)
    80002844:	b7e9                	j	8000280e <bmap+0x5e>
      ip->addrs[NDIRECT] = addr = balloc(ip->dev);
    80002846:	4108                	lw	a0,0(a0)
    80002848:	00000097          	auipc	ra,0x0
    8000284c:	e18080e7          	jalr	-488(ra) # 80002660 <balloc>
    80002850:	0005059b          	sext.w	a1,a0
    80002854:	08b9a023          	sw	a1,128(s3)
    80002858:	b759                	j	800027de <bmap+0x2e>
      a[bn] = addr = balloc(ip->dev);
    8000285a:	0009a503          	lw	a0,0(s3)
    8000285e:	00000097          	auipc	ra,0x0
    80002862:	e02080e7          	jalr	-510(ra) # 80002660 <balloc>
    80002866:	0005091b          	sext.w	s2,a0
    8000286a:	0124a023          	sw	s2,0(s1)
      log_write(bp);
    8000286e:	8552                	mv	a0,s4
    80002870:	00001097          	auipc	ra,0x1
    80002874:	f0c080e7          	jalr	-244(ra) # 8000377c <log_write>
    80002878:	b771                	j	80002804 <bmap+0x54>
  panic("bmap: out of range");
    8000287a:	00007517          	auipc	a0,0x7
    8000287e:	c8e50513          	addi	a0,a0,-882 # 80009508 <syscalls+0x180>
    80002882:	00004097          	auipc	ra,0x4
    80002886:	50c080e7          	jalr	1292(ra) # 80006d8e <panic>

000000008000288a <iget>:
{
    8000288a:	7179                	addi	sp,sp,-48
    8000288c:	f406                	sd	ra,40(sp)
    8000288e:	f022                	sd	s0,32(sp)
    80002890:	ec26                	sd	s1,24(sp)
    80002892:	e84a                	sd	s2,16(sp)
    80002894:	e44e                	sd	s3,8(sp)
    80002896:	e052                	sd	s4,0(sp)
    80002898:	1800                	addi	s0,sp,48
    8000289a:	89aa                	mv	s3,a0
    8000289c:	8a2e                	mv	s4,a1
  acquire(&icache.lock);
    8000289e:	00016517          	auipc	a0,0x16
    800028a2:	ce250513          	addi	a0,a0,-798 # 80018580 <icache>
    800028a6:	00005097          	auipc	ra,0x5
    800028aa:	a54080e7          	jalr	-1452(ra) # 800072fa <acquire>
  empty = 0;
    800028ae:	4901                	li	s2,0
  for(ip = &icache.inode[0]; ip < &icache.inode[NINODE]; ip++){
    800028b0:	00016497          	auipc	s1,0x16
    800028b4:	ce848493          	addi	s1,s1,-792 # 80018598 <icache+0x18>
    800028b8:	00017697          	auipc	a3,0x17
    800028bc:	77068693          	addi	a3,a3,1904 # 8001a028 <log>
    800028c0:	a039                	j	800028ce <iget+0x44>
    if(empty == 0 && ip->ref == 0)    // Remember empty slot.
    800028c2:	02090b63          	beqz	s2,800028f8 <iget+0x6e>
  for(ip = &icache.inode[0]; ip < &icache.inode[NINODE]; ip++){
    800028c6:	08848493          	addi	s1,s1,136
    800028ca:	02d48a63          	beq	s1,a3,800028fe <iget+0x74>
    if(ip->ref > 0 && ip->dev == dev && ip->inum == inum){
    800028ce:	449c                	lw	a5,8(s1)
    800028d0:	fef059e3          	blez	a5,800028c2 <iget+0x38>
    800028d4:	4098                	lw	a4,0(s1)
    800028d6:	ff3716e3          	bne	a4,s3,800028c2 <iget+0x38>
    800028da:	40d8                	lw	a4,4(s1)
    800028dc:	ff4713e3          	bne	a4,s4,800028c2 <iget+0x38>
      ip->ref++;
    800028e0:	2785                	addiw	a5,a5,1
    800028e2:	c49c                	sw	a5,8(s1)
      release(&icache.lock);
    800028e4:	00016517          	auipc	a0,0x16
    800028e8:	c9c50513          	addi	a0,a0,-868 # 80018580 <icache>
    800028ec:	00005097          	auipc	ra,0x5
    800028f0:	ac2080e7          	jalr	-1342(ra) # 800073ae <release>
      return ip;
    800028f4:	8926                	mv	s2,s1
    800028f6:	a03d                	j	80002924 <iget+0x9a>
    if(empty == 0 && ip->ref == 0)    // Remember empty slot.
    800028f8:	f7f9                	bnez	a5,800028c6 <iget+0x3c>
    800028fa:	8926                	mv	s2,s1
    800028fc:	b7e9                	j	800028c6 <iget+0x3c>
  if(empty == 0)
    800028fe:	02090c63          	beqz	s2,80002936 <iget+0xac>
  ip->dev = dev;
    80002902:	01392023          	sw	s3,0(s2)
  ip->inum = inum;
    80002906:	01492223          	sw	s4,4(s2)
  ip->ref = 1;
    8000290a:	4785                	li	a5,1
    8000290c:	00f92423          	sw	a5,8(s2)
  ip->valid = 0;
    80002910:	04092023          	sw	zero,64(s2)
  release(&icache.lock);
    80002914:	00016517          	auipc	a0,0x16
    80002918:	c6c50513          	addi	a0,a0,-916 # 80018580 <icache>
    8000291c:	00005097          	auipc	ra,0x5
    80002920:	a92080e7          	jalr	-1390(ra) # 800073ae <release>
}
    80002924:	854a                	mv	a0,s2
    80002926:	70a2                	ld	ra,40(sp)
    80002928:	7402                	ld	s0,32(sp)
    8000292a:	64e2                	ld	s1,24(sp)
    8000292c:	6942                	ld	s2,16(sp)
    8000292e:	69a2                	ld	s3,8(sp)
    80002930:	6a02                	ld	s4,0(sp)
    80002932:	6145                	addi	sp,sp,48
    80002934:	8082                	ret
    panic("iget: no inodes");
    80002936:	00007517          	auipc	a0,0x7
    8000293a:	bea50513          	addi	a0,a0,-1046 # 80009520 <syscalls+0x198>
    8000293e:	00004097          	auipc	ra,0x4
    80002942:	450080e7          	jalr	1104(ra) # 80006d8e <panic>

0000000080002946 <fsinit>:
fsinit(int dev) {
    80002946:	7179                	addi	sp,sp,-48
    80002948:	f406                	sd	ra,40(sp)
    8000294a:	f022                	sd	s0,32(sp)
    8000294c:	ec26                	sd	s1,24(sp)
    8000294e:	e84a                	sd	s2,16(sp)
    80002950:	e44e                	sd	s3,8(sp)
    80002952:	1800                	addi	s0,sp,48
    80002954:	89aa                	mv	s3,a0
  bp = bread(dev, 1);
    80002956:	4585                	li	a1,1
    80002958:	00000097          	auipc	ra,0x0
    8000295c:	a20080e7          	jalr	-1504(ra) # 80002378 <bread>
    80002960:	892a                	mv	s2,a0
  memmove(sb, bp->data, sizeof(*sb));
    80002962:	00016497          	auipc	s1,0x16
    80002966:	bfe48493          	addi	s1,s1,-1026 # 80018560 <sb>
    8000296a:	02000613          	li	a2,32
    8000296e:	05850593          	addi	a1,a0,88
    80002972:	8526                	mv	a0,s1
    80002974:	ffffe097          	auipc	ra,0xffffe
    80002978:	874080e7          	jalr	-1932(ra) # 800001e8 <memmove>
  brelse(bp);
    8000297c:	854a                	mv	a0,s2
    8000297e:	00000097          	auipc	ra,0x0
    80002982:	b3c080e7          	jalr	-1220(ra) # 800024ba <brelse>
  if(sb.magic != FSMAGIC)
    80002986:	4098                	lw	a4,0(s1)
    80002988:	102037b7          	lui	a5,0x10203
    8000298c:	04078793          	addi	a5,a5,64 # 10203040 <_entry-0x6fdfcfc0>
    80002990:	02f71263          	bne	a4,a5,800029b4 <fsinit+0x6e>
  initlog(dev, &sb);
    80002994:	00016597          	auipc	a1,0x16
    80002998:	bcc58593          	addi	a1,a1,-1076 # 80018560 <sb>
    8000299c:	854e                	mv	a0,s3
    8000299e:	00001097          	auipc	ra,0x1
    800029a2:	b5c080e7          	jalr	-1188(ra) # 800034fa <initlog>
}
    800029a6:	70a2                	ld	ra,40(sp)
    800029a8:	7402                	ld	s0,32(sp)
    800029aa:	64e2                	ld	s1,24(sp)
    800029ac:	6942                	ld	s2,16(sp)
    800029ae:	69a2                	ld	s3,8(sp)
    800029b0:	6145                	addi	sp,sp,48
    800029b2:	8082                	ret
    panic("invalid file system");
    800029b4:	00007517          	auipc	a0,0x7
    800029b8:	b7c50513          	addi	a0,a0,-1156 # 80009530 <syscalls+0x1a8>
    800029bc:	00004097          	auipc	ra,0x4
    800029c0:	3d2080e7          	jalr	978(ra) # 80006d8e <panic>

00000000800029c4 <iinit>:
{
    800029c4:	7179                	addi	sp,sp,-48
    800029c6:	f406                	sd	ra,40(sp)
    800029c8:	f022                	sd	s0,32(sp)
    800029ca:	ec26                	sd	s1,24(sp)
    800029cc:	e84a                	sd	s2,16(sp)
    800029ce:	e44e                	sd	s3,8(sp)
    800029d0:	1800                	addi	s0,sp,48
  initlock(&icache.lock, "icache");
    800029d2:	00007597          	auipc	a1,0x7
    800029d6:	b7658593          	addi	a1,a1,-1162 # 80009548 <syscalls+0x1c0>
    800029da:	00016517          	auipc	a0,0x16
    800029de:	ba650513          	addi	a0,a0,-1114 # 80018580 <icache>
    800029e2:	00005097          	auipc	ra,0x5
    800029e6:	888080e7          	jalr	-1912(ra) # 8000726a <initlock>
  for(i = 0; i < NINODE; i++) {
    800029ea:	00016497          	auipc	s1,0x16
    800029ee:	bbe48493          	addi	s1,s1,-1090 # 800185a8 <icache+0x28>
    800029f2:	00017997          	auipc	s3,0x17
    800029f6:	64698993          	addi	s3,s3,1606 # 8001a038 <log+0x10>
    initsleeplock(&icache.inode[i].lock, "inode");
    800029fa:	00007917          	auipc	s2,0x7
    800029fe:	b5690913          	addi	s2,s2,-1194 # 80009550 <syscalls+0x1c8>
    80002a02:	85ca                	mv	a1,s2
    80002a04:	8526                	mv	a0,s1
    80002a06:	00001097          	auipc	ra,0x1
    80002a0a:	e7a080e7          	jalr	-390(ra) # 80003880 <initsleeplock>
  for(i = 0; i < NINODE; i++) {
    80002a0e:	08848493          	addi	s1,s1,136
    80002a12:	ff3498e3          	bne	s1,s3,80002a02 <iinit+0x3e>
}
    80002a16:	70a2                	ld	ra,40(sp)
    80002a18:	7402                	ld	s0,32(sp)
    80002a1a:	64e2                	ld	s1,24(sp)
    80002a1c:	6942                	ld	s2,16(sp)
    80002a1e:	69a2                	ld	s3,8(sp)
    80002a20:	6145                	addi	sp,sp,48
    80002a22:	8082                	ret

0000000080002a24 <ialloc>:
{
    80002a24:	715d                	addi	sp,sp,-80
    80002a26:	e486                	sd	ra,72(sp)
    80002a28:	e0a2                	sd	s0,64(sp)
    80002a2a:	fc26                	sd	s1,56(sp)
    80002a2c:	f84a                	sd	s2,48(sp)
    80002a2e:	f44e                	sd	s3,40(sp)
    80002a30:	f052                	sd	s4,32(sp)
    80002a32:	ec56                	sd	s5,24(sp)
    80002a34:	e85a                	sd	s6,16(sp)
    80002a36:	e45e                	sd	s7,8(sp)
    80002a38:	0880                	addi	s0,sp,80
  for(inum = 1; inum < sb.ninodes; inum++){
    80002a3a:	00016797          	auipc	a5,0x16
    80002a3e:	b2678793          	addi	a5,a5,-1242 # 80018560 <sb>
    80002a42:	47d8                	lw	a4,12(a5)
    80002a44:	4785                	li	a5,1
    80002a46:	04e7fa63          	bleu	a4,a5,80002a9a <ialloc+0x76>
    80002a4a:	8a2a                	mv	s4,a0
    80002a4c:	8b2e                	mv	s6,a1
    80002a4e:	4485                	li	s1,1
    bp = bread(dev, IBLOCK(inum, sb));
    80002a50:	00016997          	auipc	s3,0x16
    80002a54:	b1098993          	addi	s3,s3,-1264 # 80018560 <sb>
    80002a58:	00048a9b          	sext.w	s5,s1
    80002a5c:	0044d593          	srli	a1,s1,0x4
    80002a60:	0189a783          	lw	a5,24(s3)
    80002a64:	9dbd                	addw	a1,a1,a5
    80002a66:	8552                	mv	a0,s4
    80002a68:	00000097          	auipc	ra,0x0
    80002a6c:	910080e7          	jalr	-1776(ra) # 80002378 <bread>
    80002a70:	8baa                	mv	s7,a0
    dip = (struct dinode*)bp->data + inum%IPB;
    80002a72:	05850913          	addi	s2,a0,88
    80002a76:	00f4f793          	andi	a5,s1,15
    80002a7a:	079a                	slli	a5,a5,0x6
    80002a7c:	993e                	add	s2,s2,a5
    if(dip->type == 0){  // a free inode
    80002a7e:	00091783          	lh	a5,0(s2)
    80002a82:	c785                	beqz	a5,80002aaa <ialloc+0x86>
    brelse(bp);
    80002a84:	00000097          	auipc	ra,0x0
    80002a88:	a36080e7          	jalr	-1482(ra) # 800024ba <brelse>
  for(inum = 1; inum < sb.ninodes; inum++){
    80002a8c:	0485                	addi	s1,s1,1
    80002a8e:	00c9a703          	lw	a4,12(s3)
    80002a92:	0004879b          	sext.w	a5,s1
    80002a96:	fce7e1e3          	bltu	a5,a4,80002a58 <ialloc+0x34>
  panic("ialloc: no inodes");
    80002a9a:	00007517          	auipc	a0,0x7
    80002a9e:	abe50513          	addi	a0,a0,-1346 # 80009558 <syscalls+0x1d0>
    80002aa2:	00004097          	auipc	ra,0x4
    80002aa6:	2ec080e7          	jalr	748(ra) # 80006d8e <panic>
      memset(dip, 0, sizeof(*dip));
    80002aaa:	04000613          	li	a2,64
    80002aae:	4581                	li	a1,0
    80002ab0:	854a                	mv	a0,s2
    80002ab2:	ffffd097          	auipc	ra,0xffffd
    80002ab6:	6ca080e7          	jalr	1738(ra) # 8000017c <memset>
      dip->type = type;
    80002aba:	01691023          	sh	s6,0(s2)
      log_write(bp);   // mark it allocated on the disk
    80002abe:	855e                	mv	a0,s7
    80002ac0:	00001097          	auipc	ra,0x1
    80002ac4:	cbc080e7          	jalr	-836(ra) # 8000377c <log_write>
      brelse(bp);
    80002ac8:	855e                	mv	a0,s7
    80002aca:	00000097          	auipc	ra,0x0
    80002ace:	9f0080e7          	jalr	-1552(ra) # 800024ba <brelse>
      return iget(dev, inum);
    80002ad2:	85d6                	mv	a1,s5
    80002ad4:	8552                	mv	a0,s4
    80002ad6:	00000097          	auipc	ra,0x0
    80002ada:	db4080e7          	jalr	-588(ra) # 8000288a <iget>
}
    80002ade:	60a6                	ld	ra,72(sp)
    80002ae0:	6406                	ld	s0,64(sp)
    80002ae2:	74e2                	ld	s1,56(sp)
    80002ae4:	7942                	ld	s2,48(sp)
    80002ae6:	79a2                	ld	s3,40(sp)
    80002ae8:	7a02                	ld	s4,32(sp)
    80002aea:	6ae2                	ld	s5,24(sp)
    80002aec:	6b42                	ld	s6,16(sp)
    80002aee:	6ba2                	ld	s7,8(sp)
    80002af0:	6161                	addi	sp,sp,80
    80002af2:	8082                	ret

0000000080002af4 <iupdate>:
{
    80002af4:	1101                	addi	sp,sp,-32
    80002af6:	ec06                	sd	ra,24(sp)
    80002af8:	e822                	sd	s0,16(sp)
    80002afa:	e426                	sd	s1,8(sp)
    80002afc:	e04a                	sd	s2,0(sp)
    80002afe:	1000                	addi	s0,sp,32
    80002b00:	84aa                	mv	s1,a0
  bp = bread(ip->dev, IBLOCK(ip->inum, sb));
    80002b02:	415c                	lw	a5,4(a0)
    80002b04:	0047d79b          	srliw	a5,a5,0x4
    80002b08:	00016717          	auipc	a4,0x16
    80002b0c:	a5870713          	addi	a4,a4,-1448 # 80018560 <sb>
    80002b10:	4f0c                	lw	a1,24(a4)
    80002b12:	9dbd                	addw	a1,a1,a5
    80002b14:	4108                	lw	a0,0(a0)
    80002b16:	00000097          	auipc	ra,0x0
    80002b1a:	862080e7          	jalr	-1950(ra) # 80002378 <bread>
    80002b1e:	892a                	mv	s2,a0
  dip = (struct dinode*)bp->data + ip->inum%IPB;
    80002b20:	05850513          	addi	a0,a0,88
    80002b24:	40dc                	lw	a5,4(s1)
    80002b26:	8bbd                	andi	a5,a5,15
    80002b28:	079a                	slli	a5,a5,0x6
    80002b2a:	953e                	add	a0,a0,a5
  dip->type = ip->type;
    80002b2c:	04449783          	lh	a5,68(s1)
    80002b30:	00f51023          	sh	a5,0(a0)
  dip->major = ip->major;
    80002b34:	04649783          	lh	a5,70(s1)
    80002b38:	00f51123          	sh	a5,2(a0)
  dip->minor = ip->minor;
    80002b3c:	04849783          	lh	a5,72(s1)
    80002b40:	00f51223          	sh	a5,4(a0)
  dip->nlink = ip->nlink;
    80002b44:	04a49783          	lh	a5,74(s1)
    80002b48:	00f51323          	sh	a5,6(a0)
  dip->size = ip->size;
    80002b4c:	44fc                	lw	a5,76(s1)
    80002b4e:	c51c                	sw	a5,8(a0)
  memmove(dip->addrs, ip->addrs, sizeof(ip->addrs));
    80002b50:	03400613          	li	a2,52
    80002b54:	05048593          	addi	a1,s1,80
    80002b58:	0531                	addi	a0,a0,12
    80002b5a:	ffffd097          	auipc	ra,0xffffd
    80002b5e:	68e080e7          	jalr	1678(ra) # 800001e8 <memmove>
  log_write(bp);
    80002b62:	854a                	mv	a0,s2
    80002b64:	00001097          	auipc	ra,0x1
    80002b68:	c18080e7          	jalr	-1000(ra) # 8000377c <log_write>
  brelse(bp);
    80002b6c:	854a                	mv	a0,s2
    80002b6e:	00000097          	auipc	ra,0x0
    80002b72:	94c080e7          	jalr	-1716(ra) # 800024ba <brelse>
}
    80002b76:	60e2                	ld	ra,24(sp)
    80002b78:	6442                	ld	s0,16(sp)
    80002b7a:	64a2                	ld	s1,8(sp)
    80002b7c:	6902                	ld	s2,0(sp)
    80002b7e:	6105                	addi	sp,sp,32
    80002b80:	8082                	ret

0000000080002b82 <idup>:
{
    80002b82:	1101                	addi	sp,sp,-32
    80002b84:	ec06                	sd	ra,24(sp)
    80002b86:	e822                	sd	s0,16(sp)
    80002b88:	e426                	sd	s1,8(sp)
    80002b8a:	1000                	addi	s0,sp,32
    80002b8c:	84aa                	mv	s1,a0
  acquire(&icache.lock);
    80002b8e:	00016517          	auipc	a0,0x16
    80002b92:	9f250513          	addi	a0,a0,-1550 # 80018580 <icache>
    80002b96:	00004097          	auipc	ra,0x4
    80002b9a:	764080e7          	jalr	1892(ra) # 800072fa <acquire>
  ip->ref++;
    80002b9e:	449c                	lw	a5,8(s1)
    80002ba0:	2785                	addiw	a5,a5,1
    80002ba2:	c49c                	sw	a5,8(s1)
  release(&icache.lock);
    80002ba4:	00016517          	auipc	a0,0x16
    80002ba8:	9dc50513          	addi	a0,a0,-1572 # 80018580 <icache>
    80002bac:	00005097          	auipc	ra,0x5
    80002bb0:	802080e7          	jalr	-2046(ra) # 800073ae <release>
}
    80002bb4:	8526                	mv	a0,s1
    80002bb6:	60e2                	ld	ra,24(sp)
    80002bb8:	6442                	ld	s0,16(sp)
    80002bba:	64a2                	ld	s1,8(sp)
    80002bbc:	6105                	addi	sp,sp,32
    80002bbe:	8082                	ret

0000000080002bc0 <ilock>:
{
    80002bc0:	1101                	addi	sp,sp,-32
    80002bc2:	ec06                	sd	ra,24(sp)
    80002bc4:	e822                	sd	s0,16(sp)
    80002bc6:	e426                	sd	s1,8(sp)
    80002bc8:	e04a                	sd	s2,0(sp)
    80002bca:	1000                	addi	s0,sp,32
  if(ip == 0 || ip->ref < 1)
    80002bcc:	c115                	beqz	a0,80002bf0 <ilock+0x30>
    80002bce:	84aa                	mv	s1,a0
    80002bd0:	451c                	lw	a5,8(a0)
    80002bd2:	00f05f63          	blez	a5,80002bf0 <ilock+0x30>
  acquiresleep(&ip->lock);
    80002bd6:	0541                	addi	a0,a0,16
    80002bd8:	00001097          	auipc	ra,0x1
    80002bdc:	ce2080e7          	jalr	-798(ra) # 800038ba <acquiresleep>
  if(ip->valid == 0){
    80002be0:	40bc                	lw	a5,64(s1)
    80002be2:	cf99                	beqz	a5,80002c00 <ilock+0x40>
}
    80002be4:	60e2                	ld	ra,24(sp)
    80002be6:	6442                	ld	s0,16(sp)
    80002be8:	64a2                	ld	s1,8(sp)
    80002bea:	6902                	ld	s2,0(sp)
    80002bec:	6105                	addi	sp,sp,32
    80002bee:	8082                	ret
    panic("ilock");
    80002bf0:	00007517          	auipc	a0,0x7
    80002bf4:	98050513          	addi	a0,a0,-1664 # 80009570 <syscalls+0x1e8>
    80002bf8:	00004097          	auipc	ra,0x4
    80002bfc:	196080e7          	jalr	406(ra) # 80006d8e <panic>
    bp = bread(ip->dev, IBLOCK(ip->inum, sb));
    80002c00:	40dc                	lw	a5,4(s1)
    80002c02:	0047d79b          	srliw	a5,a5,0x4
    80002c06:	00016717          	auipc	a4,0x16
    80002c0a:	95a70713          	addi	a4,a4,-1702 # 80018560 <sb>
    80002c0e:	4f0c                	lw	a1,24(a4)
    80002c10:	9dbd                	addw	a1,a1,a5
    80002c12:	4088                	lw	a0,0(s1)
    80002c14:	fffff097          	auipc	ra,0xfffff
    80002c18:	764080e7          	jalr	1892(ra) # 80002378 <bread>
    80002c1c:	892a                	mv	s2,a0
    dip = (struct dinode*)bp->data + ip->inum%IPB;
    80002c1e:	05850593          	addi	a1,a0,88
    80002c22:	40dc                	lw	a5,4(s1)
    80002c24:	8bbd                	andi	a5,a5,15
    80002c26:	079a                	slli	a5,a5,0x6
    80002c28:	95be                	add	a1,a1,a5
    ip->type = dip->type;
    80002c2a:	00059783          	lh	a5,0(a1)
    80002c2e:	04f49223          	sh	a5,68(s1)
    ip->major = dip->major;
    80002c32:	00259783          	lh	a5,2(a1)
    80002c36:	04f49323          	sh	a5,70(s1)
    ip->minor = dip->minor;
    80002c3a:	00459783          	lh	a5,4(a1)
    80002c3e:	04f49423          	sh	a5,72(s1)
    ip->nlink = dip->nlink;
    80002c42:	00659783          	lh	a5,6(a1)
    80002c46:	04f49523          	sh	a5,74(s1)
    ip->size = dip->size;
    80002c4a:	459c                	lw	a5,8(a1)
    80002c4c:	c4fc                	sw	a5,76(s1)
    memmove(ip->addrs, dip->addrs, sizeof(ip->addrs));
    80002c4e:	03400613          	li	a2,52
    80002c52:	05b1                	addi	a1,a1,12
    80002c54:	05048513          	addi	a0,s1,80
    80002c58:	ffffd097          	auipc	ra,0xffffd
    80002c5c:	590080e7          	jalr	1424(ra) # 800001e8 <memmove>
    brelse(bp);
    80002c60:	854a                	mv	a0,s2
    80002c62:	00000097          	auipc	ra,0x0
    80002c66:	858080e7          	jalr	-1960(ra) # 800024ba <brelse>
    ip->valid = 1;
    80002c6a:	4785                	li	a5,1
    80002c6c:	c0bc                	sw	a5,64(s1)
    if(ip->type == 0)
    80002c6e:	04449783          	lh	a5,68(s1)
    80002c72:	fbad                	bnez	a5,80002be4 <ilock+0x24>
      panic("ilock: no type");
    80002c74:	00007517          	auipc	a0,0x7
    80002c78:	90450513          	addi	a0,a0,-1788 # 80009578 <syscalls+0x1f0>
    80002c7c:	00004097          	auipc	ra,0x4
    80002c80:	112080e7          	jalr	274(ra) # 80006d8e <panic>

0000000080002c84 <iunlock>:
{
    80002c84:	1101                	addi	sp,sp,-32
    80002c86:	ec06                	sd	ra,24(sp)
    80002c88:	e822                	sd	s0,16(sp)
    80002c8a:	e426                	sd	s1,8(sp)
    80002c8c:	e04a                	sd	s2,0(sp)
    80002c8e:	1000                	addi	s0,sp,32
  if(ip == 0 || !holdingsleep(&ip->lock) || ip->ref < 1)
    80002c90:	c905                	beqz	a0,80002cc0 <iunlock+0x3c>
    80002c92:	84aa                	mv	s1,a0
    80002c94:	01050913          	addi	s2,a0,16
    80002c98:	854a                	mv	a0,s2
    80002c9a:	00001097          	auipc	ra,0x1
